
master.elf:     file format elf32-avr

Sections:
Idx Name          Size      VMA       LMA       File off  Algn
  0 .data         000001d0  00800200  000010fc  00001190  2**0
                  CONTENTS, ALLOC, LOAD, DATA
  1 .text         000010fc  00000000  00000000  00000094  2**1
                  CONTENTS, ALLOC, LOAD, READONLY, CODE
  2 .bss          00000003  008003d0  008003d0  00001360  2**0
                  ALLOC
  3 .comment      0000005c  00000000  00000000  00001360  2**0
                  CONTENTS, READONLY
  4 .note.gnu.avr.deviceinfo 00000040  00000000  00000000  000013bc  2**2
                  CONTENTS, READONLY
  5 .debug_aranges 00000158  00000000  00000000  000013fc  2**0
                  CONTENTS, READONLY, DEBUGGING
  6 .debug_info   00002820  00000000  00000000  00001554  2**0
                  CONTENTS, READONLY, DEBUGGING
  7 .debug_abbrev 0000125a  00000000  00000000  00003d74  2**0
                  CONTENTS, READONLY, DEBUGGING
  8 .debug_line   00001127  00000000  00000000  00004fce  2**0
                  CONTENTS, READONLY, DEBUGGING
  9 .debug_frame  0000031c  00000000  00000000  000060f8  2**2
                  CONTENTS, READONLY, DEBUGGING
 10 .debug_str    0000086f  00000000  00000000  00006414  2**0
                  CONTENTS, READONLY, DEBUGGING
 11 .debug_loc    0000138e  00000000  00000000  00006c83  2**0
                  CONTENTS, READONLY, DEBUGGING
 12 .debug_ranges 00000128  00000000  00000000  00008011  2**0
                  CONTENTS, READONLY, DEBUGGING

Disassembly of section .text:

00000000 <__vectors>:
       0:	e9 c0       	rjmp	.+466    	; 0x1d4 <__ctors_end>
       2:	00 00       	nop
       4:	06 c1       	rjmp	.+524    	; 0x212 <__bad_interrupt>
       6:	00 00       	nop
       8:	04 c1       	rjmp	.+520    	; 0x212 <__bad_interrupt>
       a:	00 00       	nop
       c:	02 c1       	rjmp	.+516    	; 0x212 <__bad_interrupt>
       e:	00 00       	nop
      10:	00 c1       	rjmp	.+512    	; 0x212 <__bad_interrupt>
      12:	00 00       	nop
      14:	fe c0       	rjmp	.+508    	; 0x212 <__bad_interrupt>
      16:	00 00       	nop
      18:	fc c0       	rjmp	.+504    	; 0x212 <__bad_interrupt>
      1a:	00 00       	nop
      1c:	fa c0       	rjmp	.+500    	; 0x212 <__bad_interrupt>
      1e:	00 00       	nop
      20:	f8 c0       	rjmp	.+496    	; 0x212 <__bad_interrupt>
      22:	00 00       	nop
      24:	f6 c0       	rjmp	.+492    	; 0x212 <__bad_interrupt>
      26:	00 00       	nop
      28:	f4 c0       	rjmp	.+488    	; 0x212 <__bad_interrupt>
      2a:	00 00       	nop
      2c:	f2 c0       	rjmp	.+484    	; 0x212 <__bad_interrupt>
      2e:	00 00       	nop
      30:	f0 c0       	rjmp	.+480    	; 0x212 <__bad_interrupt>
      32:	00 00       	nop
      34:	ee c0       	rjmp	.+476    	; 0x212 <__bad_interrupt>
      36:	00 00       	nop
      38:	ec c0       	rjmp	.+472    	; 0x212 <__bad_interrupt>
      3a:	00 00       	nop
      3c:	ea c0       	rjmp	.+468    	; 0x212 <__bad_interrupt>
      3e:	00 00       	nop
      40:	e8 c0       	rjmp	.+464    	; 0x212 <__bad_interrupt>
      42:	00 00       	nop
      44:	e6 c0       	rjmp	.+460    	; 0x212 <__bad_interrupt>
      46:	00 00       	nop
      48:	e4 c0       	rjmp	.+456    	; 0x212 <__bad_interrupt>
      4a:	00 00       	nop
      4c:	e2 c0       	rjmp	.+452    	; 0x212 <__bad_interrupt>
      4e:	00 00       	nop
      50:	e0 c0       	rjmp	.+448    	; 0x212 <__bad_interrupt>
      52:	00 00       	nop
      54:	de c0       	rjmp	.+444    	; 0x212 <__bad_interrupt>
      56:	00 00       	nop
      58:	dc c0       	rjmp	.+440    	; 0x212 <__bad_interrupt>
      5a:	00 00       	nop
      5c:	da c0       	rjmp	.+436    	; 0x212 <__bad_interrupt>
      5e:	00 00       	nop
      60:	d8 c0       	rjmp	.+432    	; 0x212 <__bad_interrupt>
      62:	00 00       	nop
      64:	d6 c0       	rjmp	.+428    	; 0x212 <__bad_interrupt>
      66:	00 00       	nop
      68:	d4 c0       	rjmp	.+424    	; 0x212 <__bad_interrupt>
      6a:	00 00       	nop
      6c:	d2 c0       	rjmp	.+420    	; 0x212 <__bad_interrupt>
      6e:	00 00       	nop
      70:	d0 c0       	rjmp	.+416    	; 0x212 <__bad_interrupt>
      72:	00 00       	nop
      74:	ce c0       	rjmp	.+412    	; 0x212 <__bad_interrupt>
      76:	00 00       	nop
      78:	cc c0       	rjmp	.+408    	; 0x212 <__bad_interrupt>
      7a:	00 00       	nop
      7c:	ca c0       	rjmp	.+404    	; 0x212 <__bad_interrupt>
      7e:	00 00       	nop
      80:	c8 c0       	rjmp	.+400    	; 0x212 <__bad_interrupt>
      82:	00 00       	nop
      84:	c6 c0       	rjmp	.+396    	; 0x212 <__bad_interrupt>
      86:	00 00       	nop
      88:	c4 c0       	rjmp	.+392    	; 0x212 <__bad_interrupt>
      8a:	00 00       	nop
      8c:	c2 c0       	rjmp	.+388    	; 0x212 <__bad_interrupt>
      8e:	00 00       	nop
      90:	c0 c0       	rjmp	.+384    	; 0x212 <__bad_interrupt>
      92:	00 00       	nop
      94:	be c0       	rjmp	.+380    	; 0x212 <__bad_interrupt>
      96:	00 00       	nop
      98:	bc c0       	rjmp	.+376    	; 0x212 <__bad_interrupt>
      9a:	00 00       	nop
      9c:	ba c0       	rjmp	.+372    	; 0x212 <__bad_interrupt>
      9e:	00 00       	nop
      a0:	b8 c0       	rjmp	.+368    	; 0x212 <__bad_interrupt>
      a2:	00 00       	nop
      a4:	b6 c0       	rjmp	.+364    	; 0x212 <__bad_interrupt>
      a6:	00 00       	nop
      a8:	b4 c0       	rjmp	.+360    	; 0x212 <__bad_interrupt>
      aa:	00 00       	nop
      ac:	b2 c0       	rjmp	.+356    	; 0x212 <__bad_interrupt>
      ae:	00 00       	nop
      b0:	b0 c0       	rjmp	.+352    	; 0x212 <__bad_interrupt>
      b2:	00 00       	nop
      b4:	ae c0       	rjmp	.+348    	; 0x212 <__bad_interrupt>
      b6:	00 00       	nop
      b8:	ac c0       	rjmp	.+344    	; 0x212 <__bad_interrupt>
      ba:	00 00       	nop
      bc:	aa c0       	rjmp	.+340    	; 0x212 <__bad_interrupt>
      be:	00 00       	nop
      c0:	a8 c0       	rjmp	.+336    	; 0x212 <__bad_interrupt>
      c2:	00 00       	nop
      c4:	a6 c0       	rjmp	.+332    	; 0x212 <__bad_interrupt>
      c6:	00 00       	nop
      c8:	a4 c0       	rjmp	.+328    	; 0x212 <__bad_interrupt>
      ca:	00 00       	nop
      cc:	a2 c0       	rjmp	.+324    	; 0x212 <__bad_interrupt>
      ce:	00 00       	nop
      d0:	a0 c0       	rjmp	.+320    	; 0x212 <__bad_interrupt>
      d2:	00 00       	nop
      d4:	9e c0       	rjmp	.+316    	; 0x212 <__bad_interrupt>
      d6:	00 00       	nop
      d8:	9c c0       	rjmp	.+312    	; 0x212 <__bad_interrupt>
      da:	00 00       	nop
      dc:	9a c0       	rjmp	.+308    	; 0x212 <__bad_interrupt>
      de:	00 00       	nop
      e0:	98 c0       	rjmp	.+304    	; 0x212 <__bad_interrupt>
      e2:	00 00       	nop
      e4:	7f 01       	movw	r14, r30
      e6:	87 01       	movw	r16, r14
      e8:	87 01       	movw	r16, r14
      ea:	87 01       	movw	r16, r14
      ec:	81 01       	movw	r16, r2
      ee:	87 01       	movw	r16, r14
      f0:	83 01       	movw	r16, r6
      f2:	85 01       	movw	r16, r10
      f4:	87 01       	movw	r16, r14
      f6:	87 01       	movw	r16, r14
      f8:	87 01       	movw	r16, r14
      fa:	87 01       	movw	r16, r14
      fc:	87 01       	movw	r16, r14
      fe:	87 01       	movw	r16, r14
     100:	87 01       	movw	r16, r14
     102:	87 01       	movw	r16, r14
     104:	87 01       	movw	r16, r14
     106:	87 01       	movw	r16, r14
     108:	87 01       	movw	r16, r14
     10a:	87 01       	movw	r16, r14
     10c:	87 01       	movw	r16, r14
     10e:	87 01       	movw	r16, r14
     110:	87 01       	movw	r16, r14
     112:	87 01       	movw	r16, r14
     114:	87 01       	movw	r16, r14
     116:	87 01       	movw	r16, r14
     118:	87 01       	movw	r16, r14
     11a:	87 01       	movw	r16, r14
     11c:	87 01       	movw	r16, r14
     11e:	87 01       	movw	r16, r14
     120:	87 01       	movw	r16, r14
     122:	87 01       	movw	r16, r14
     124:	87 01       	movw	r16, r14
     126:	87 01       	movw	r16, r14
     128:	87 01       	movw	r16, r14
     12a:	87 01       	movw	r16, r14
     12c:	87 01       	movw	r16, r14
     12e:	87 01       	movw	r16, r14
     130:	87 01       	movw	r16, r14
     132:	87 01       	movw	r16, r14
     134:	87 01       	movw	r16, r14
     136:	87 01       	movw	r16, r14
     138:	87 01       	movw	r16, r14
     13a:	87 01       	movw	r16, r14
     13c:	87 01       	movw	r16, r14
     13e:	87 01       	movw	r16, r14
     140:	87 01       	movw	r16, r14
     142:	87 01       	movw	r16, r14
     144:	87 01       	movw	r16, r14
     146:	87 01       	movw	r16, r14
     148:	87 01       	movw	r16, r14
     14a:	87 01       	movw	r16, r14
     14c:	87 01       	movw	r16, r14
     14e:	87 01       	movw	r16, r14
     150:	87 01       	movw	r16, r14
     152:	87 01       	movw	r16, r14
     154:	87 01       	movw	r16, r14
     156:	87 01       	movw	r16, r14
     158:	87 01       	movw	r16, r14
     15a:	87 01       	movw	r16, r14
     15c:	87 01       	movw	r16, r14
     15e:	87 01       	movw	r16, r14
     160:	87 01       	movw	r16, r14
     162:	87 01       	movw	r16, r14
     164:	77 01       	movw	r14, r14
     166:	87 01       	movw	r16, r14
     168:	87 01       	movw	r16, r14
     16a:	87 01       	movw	r16, r14
     16c:	79 01       	movw	r14, r18
     16e:	87 01       	movw	r16, r14
     170:	7b 01       	movw	r14, r22
     172:	7d 01       	movw	r14, r26
     174:	87 01       	movw	r16, r14
     176:	87 01       	movw	r16, r14
     178:	87 01       	movw	r16, r14
     17a:	87 01       	movw	r16, r14
     17c:	87 01       	movw	r16, r14
     17e:	87 01       	movw	r16, r14
     180:	87 01       	movw	r16, r14
     182:	87 01       	movw	r16, r14
     184:	87 01       	movw	r16, r14
     186:	87 01       	movw	r16, r14
     188:	87 01       	movw	r16, r14
     18a:	87 01       	movw	r16, r14
     18c:	87 01       	movw	r16, r14
     18e:	87 01       	movw	r16, r14
     190:	87 01       	movw	r16, r14
     192:	87 01       	movw	r16, r14
     194:	87 01       	movw	r16, r14
     196:	87 01       	movw	r16, r14
     198:	87 01       	movw	r16, r14
     19a:	87 01       	movw	r16, r14
     19c:	87 01       	movw	r16, r14
     19e:	87 01       	movw	r16, r14
     1a0:	87 01       	movw	r16, r14
     1a2:	87 01       	movw	r16, r14
     1a4:	6f 01       	movw	r12, r30
     1a6:	87 01       	movw	r16, r14
     1a8:	87 01       	movw	r16, r14
     1aa:	87 01       	movw	r16, r14
     1ac:	71 01       	movw	r14, r2
     1ae:	87 01       	movw	r16, r14
     1b0:	73 01       	movw	r14, r6
     1b2:	75 01       	movw	r14, r10
     1b4:	87 01       	movw	r16, r14
     1b6:	87 01       	movw	r16, r14
     1b8:	87 01       	movw	r16, r14
     1ba:	87 01       	movw	r16, r14
     1bc:	87 01       	movw	r16, r14
     1be:	87 01       	movw	r16, r14
     1c0:	87 01       	movw	r16, r14
     1c2:	87 01       	movw	r16, r14
     1c4:	69 01       	movw	r12, r18
     1c6:	87 01       	movw	r16, r14
     1c8:	87 01       	movw	r16, r14
     1ca:	87 01       	movw	r16, r14
     1cc:	89 01       	movw	r16, r18
     1ce:	87 01       	movw	r16, r14
     1d0:	6b 01       	movw	r12, r22
     1d2:	6d 01       	movw	r12, r26

000001d4 <__ctors_end>:
     1d4:	11 24       	eor	r1, r1
     1d6:	1f be       	out	0x3f, r1	; 63
     1d8:	cf ef       	ldi	r28, 0xFF	; 255
     1da:	d1 e2       	ldi	r29, 0x21	; 33
     1dc:	de bf       	out	0x3e, r29	; 62
     1de:	cd bf       	out	0x3d, r28	; 61
     1e0:	00 e0       	ldi	r16, 0x00	; 0
     1e2:	0c bf       	out	0x3c, r16	; 60

000001e4 <__do_copy_data>:
     1e4:	13 e0       	ldi	r17, 0x03	; 3
     1e6:	a0 e0       	ldi	r26, 0x00	; 0
     1e8:	b2 e0       	ldi	r27, 0x02	; 2
     1ea:	ec ef       	ldi	r30, 0xFC	; 252
     1ec:	f0 e1       	ldi	r31, 0x10	; 16
     1ee:	00 e0       	ldi	r16, 0x00	; 0
     1f0:	0b bf       	out	0x3b, r16	; 59
     1f2:	02 c0       	rjmp	.+4      	; 0x1f8 <__do_copy_data+0x14>
     1f4:	07 90       	elpm	r0, Z+
     1f6:	0d 92       	st	X+, r0
     1f8:	a0 3d       	cpi	r26, 0xD0	; 208
     1fa:	b1 07       	cpc	r27, r17
     1fc:	d9 f7       	brne	.-10     	; 0x1f4 <__do_copy_data+0x10>

000001fe <__do_clear_bss>:
     1fe:	23 e0       	ldi	r18, 0x03	; 3
     200:	a0 ed       	ldi	r26, 0xD0	; 208
     202:	b3 e0       	ldi	r27, 0x03	; 3
     204:	01 c0       	rjmp	.+2      	; 0x208 <.do_clear_bss_start>

00000206 <.do_clear_bss_loop>:
     206:	1d 92       	st	X+, r1

00000208 <.do_clear_bss_start>:
     208:	a3 3d       	cpi	r26, 0xD3	; 211
     20a:	b2 07       	cpc	r27, r18
     20c:	e1 f7       	brne	.-8      	; 0x206 <.do_clear_bss_loop>
     20e:	2c d3       	rcall	.+1624   	; 0x868 <main>
     210:	73 c7       	rjmp	.+3814   	; 0x10f8 <_exit>

00000212 <__bad_interrupt>:
     212:	f6 ce       	rjmp	.-532    	; 0x0 <__vectors>

00000214 <keypad_ScanKey>:
static uint8_t keypad_ScanKey()
{

	uint8_t var_keyScanCode_u8 = 0xEF,i, var_keyPress_u8;

	for(i=0;i<0x04;i++)                // Scan All the 4-Rows for key press
     214:	20 e0       	ldi	r18, 0x00	; 0
        4.Return the ScanCode(Combination of ROW & COL) for decoding the key.
 ***************************************************************************************************/
static uint8_t keypad_ScanKey()
{

	uint8_t var_keyScanCode_u8 = 0xEF,i, var_keyPress_u8;
     216:	9f ee       	ldi	r25, 0xEF	; 239

	for(i=0;i<0x04;i++)                // Scan All the 4-Rows for key press
     218:	10 c0       	rjmp	.+32     	; 0x23a <keypad_ScanKey+0x26>
	{
		M_ROW=var_keyScanCode_u8;        // Select 1-Row at a time for Scanning the Key
     21a:	90 93 08 01 	sts	0x0108, r25	; 0x800108 <__TEXT_REGION_LENGTH__+0x7c0108>
	#else
		//round up by default
		__ticks_dc = (uint32_t)(ceil(fabs(__tmp)));
	#endif

	__builtin_avr_delay_cycles(__ticks_dc);
     21e:	e9 ef       	ldi	r30, 0xF9	; 249
     220:	f0 e0       	ldi	r31, 0x00	; 0
     222:	31 97       	sbiw	r30, 0x01	; 1
     224:	f1 f7       	brne	.-4      	; 0x222 <keypad_ScanKey+0xe>
     226:	00 c0       	rjmp	.+0      	; 0x228 <keypad_ScanKey+0x14>
     228:	00 00       	nop
		DELAY_ms(1);
		var_keyPress_u8=M_COL & 0x0F;    // Read the Column, for key press
     22a:	80 91 06 01 	lds	r24, 0x0106	; 0x800106 <__TEXT_REGION_LENGTH__+0x7c0106>
     22e:	8f 70       	andi	r24, 0x0F	; 15

		if(var_keyPress_u8!=0x0F)        // If the KEY press is detected for the selected
     230:	8f 30       	cpi	r24, 0x0F	; 15
     232:	29 f4       	brne	.+10     	; 0x23e <keypad_ScanKey+0x2a>
			break;                     // ROW then stop Scanning,

		var_keyScanCode_u8=((var_keyScanCode_u8<<1)+0x01); // Rotate the ScanKey to SCAN the remaining Rows
     234:	99 0f       	add	r25, r25
     236:	9f 5f       	subi	r25, 0xFF	; 255
static uint8_t keypad_ScanKey()
{

	uint8_t var_keyScanCode_u8 = 0xEF,i, var_keyPress_u8;

	for(i=0;i<0x04;i++)                // Scan All the 4-Rows for key press
     238:	2f 5f       	subi	r18, 0xFF	; 255
     23a:	24 30       	cpi	r18, 0x04	; 4
     23c:	70 f3       	brcs	.-36     	; 0x21a <keypad_ScanKey+0x6>
		if(var_keyPress_u8!=0x0F)        // If the KEY press is detected for the selected
			break;                     // ROW then stop Scanning,

		var_keyScanCode_u8=((var_keyScanCode_u8<<1)+0x01); // Rotate the ScanKey to SCAN the remaining Rows
	}
	var_keyPress_u8 = var_keyPress_u8 + (var_keyScanCode_u8 & 0xf0); // Return the row and COL status to decode the key
     23e:	90 7f       	andi	r25, 0xF0	; 240
	return(var_keyPress_u8);
}
     240:	89 0f       	add	r24, r25
     242:	08 95       	ret

00000244 <KEYPAD_Init>:
        1.ROW lines are configured as Output.
        2.Column Lines are configured as Input.
 ***************************************************************************************************/
void KEYPAD_Init()
{
	M_RowColDirection= C_RowOutputColInput_U8; // Configure Row lines as O/P and Column lines as I/P
     244:	80 ef       	ldi	r24, 0xF0	; 240
     246:	80 93 07 01 	sts	0x0107, r24	; 0x800107 <__TEXT_REGION_LENGTH__+0x7c0107>
     24a:	08 95       	ret

0000024c <KEYPAD_WaitForKeyRelease>:
	uint8_t key;
	do
	{
		do
		{
			M_ROW=0x0F;           // Pull the ROW lines to low and Column lines high.
     24c:	8f e0       	ldi	r24, 0x0F	; 15
     24e:	80 93 08 01 	sts	0x0108, r24	; 0x800108 <__TEXT_REGION_LENGTH__+0x7c0108>
			key=M_COL & 0x0F;     // Read the Columns, to check the key press
     252:	80 91 06 01 	lds	r24, 0x0106	; 0x800106 <__TEXT_REGION_LENGTH__+0x7c0106>
     256:	8f 70       	andi	r24, 0x0F	; 15
		}while(key!=0x0F);
     258:	8f 30       	cpi	r24, 0x0F	; 15
     25a:	c1 f7       	brne	.-16     	; 0x24c <KEYPAD_WaitForKeyRelease>
     25c:	89 ef       	ldi	r24, 0xF9	; 249
     25e:	90 e0       	ldi	r25, 0x00	; 0
     260:	01 97       	sbiw	r24, 0x01	; 1
     262:	f1 f7       	brne	.-4      	; 0x260 <KEYPAD_WaitForKeyRelease+0x14>
     264:	00 c0       	rjmp	.+0      	; 0x266 <KEYPAD_WaitForKeyRelease+0x1a>
     266:	00 00       	nop

		DELAY_ms(1);

		M_ROW=0x0F;           // Pull the ROW lines to low and Column lines high.
     268:	8f e0       	ldi	r24, 0x0F	; 15
     26a:	80 93 08 01 	sts	0x0108, r24	; 0x800108 <__TEXT_REGION_LENGTH__+0x7c0108>
		key=M_COL & 0x0F;     // Read the Columns, to check the key press
     26e:	80 91 06 01 	lds	r24, 0x0106	; 0x800106 <__TEXT_REGION_LENGTH__+0x7c0106>
     272:	8f 70       	andi	r24, 0x0F	; 15
	}while(key!=0x0F);   // Wait till the Key is released,
     274:	8f 30       	cpi	r24, 0x0F	; 15
     276:	51 f7       	brne	.-44     	; 0x24c <KEYPAD_WaitForKeyRelease>
	                     // If no Key is pressed, Column lines will be High(0x0F)
}
     278:	08 95       	ret

0000027a <KEYPAD_WaitForKeyPress>:
	uint8_t var_keyPress_u8;
	do
	{
		do
		{
			M_ROW=0x0F;		  // Pull the ROW lines to low and Column lines high.
     27a:	8f e0       	ldi	r24, 0x0F	; 15
     27c:	80 93 08 01 	sts	0x0108, r24	; 0x800108 <__TEXT_REGION_LENGTH__+0x7c0108>
			var_keyPress_u8=M_COL & 0x0F;	  // Read the Columns, to check the key press
     280:	80 91 06 01 	lds	r24, 0x0106	; 0x800106 <__TEXT_REGION_LENGTH__+0x7c0106>
     284:	8f 70       	andi	r24, 0x0F	; 15
		}while(var_keyPress_u8==0x0F); // Wait till the Key is pressed,
     286:	8f 30       	cpi	r24, 0x0F	; 15
     288:	c1 f3       	breq	.-16     	; 0x27a <KEYPAD_WaitForKeyPress>
     28a:	89 ef       	ldi	r24, 0xF9	; 249
     28c:	90 e0       	ldi	r25, 0x00	; 0
     28e:	01 97       	sbiw	r24, 0x01	; 1
     290:	f1 f7       	brne	.-4      	; 0x28e <KEYPAD_WaitForKeyPress+0x14>
     292:	00 c0       	rjmp	.+0      	; 0x294 <KEYPAD_WaitForKeyPress+0x1a>
     294:	00 00       	nop
		// if a Key is pressed the corresponding Column line go low

		DELAY_ms(1);		  // Wait for some time(debounce Time);

		M_ROW=0x0F;		  // After debounce time, perform the above operation
     296:	8f e0       	ldi	r24, 0x0F	; 15
     298:	80 93 08 01 	sts	0x0108, r24	; 0x800108 <__TEXT_REGION_LENGTH__+0x7c0108>
		var_keyPress_u8=M_COL & 0x0F;	  // to ensure the Key press.
     29c:	80 91 06 01 	lds	r24, 0x0106	; 0x800106 <__TEXT_REGION_LENGTH__+0x7c0106>
     2a0:	8f 70       	andi	r24, 0x0F	; 15

	}while(var_keyPress_u8==0x0F);
     2a2:	8f 30       	cpi	r24, 0x0F	; 15
     2a4:	51 f3       	breq	.-44     	; 0x27a <KEYPAD_WaitForKeyPress>
}
     2a6:	08 95       	ret

000002a8 <KEYPAD_GetKey>:
 ***************************************************************************************************/
uint8_t KEYPAD_GetKey()
{
	uint8_t var_keyPress_u8;

	KEYPAD_WaitForKeyRelease();    // Wait for the previous key release
     2a8:	d1 df       	rcall	.-94     	; 0x24c <KEYPAD_WaitForKeyRelease>
     2aa:	89 ef       	ldi	r24, 0xF9	; 249
     2ac:	90 e0       	ldi	r25, 0x00	; 0
     2ae:	01 97       	sbiw	r24, 0x01	; 1
     2b0:	f1 f7       	brne	.-4      	; 0x2ae <KEYPAD_GetKey+0x6>
     2b2:	00 c0       	rjmp	.+0      	; 0x2b4 <KEYPAD_GetKey+0xc>
	DELAY_ms(1);

	KEYPAD_WaitForKeyPress();      // Wait for the new key press
     2b4:	00 00       	nop
	var_keyPress_u8 = keypad_ScanKey();        // Scan for the key pressed.
     2b6:	e1 df       	rcall	.-62     	; 0x27a <KEYPAD_WaitForKeyPress>
     2b8:	ad df       	rcall	.-166    	; 0x214 <keypad_ScanKey>

	switch(var_keyPress_u8)                       // Decode the key
     2ba:	90 e0       	ldi	r25, 0x00	; 0
     2bc:	fc 01       	movw	r30, r24
     2be:	e7 57       	subi	r30, 0x77	; 119
     2c0:	f1 09       	sbc	r31, r1
     2c2:	e8 37       	cpi	r30, 0x78	; 120
     2c4:	f1 05       	cpc	r31, r1
     2c6:	18 f5       	brcc	.+70     	; 0x30e <KEYPAD_GetKey+0x66>
     2c8:	88 27       	eor	r24, r24
     2ca:	ee 58       	subi	r30, 0x8E	; 142
     2cc:	ff 4f       	sbci	r31, 0xFF	; 255
     2ce:	8f 4f       	sbci	r24, 0xFF	; 255
     2d0:	fd c3       	rjmp	.+2042   	; 0xacc <__tablejump2__>
	{
	case 0xe7: var_keyPress_u8='*'; break; 
     2d2:	8a e2       	ldi	r24, 0x2A	; 42
     2d4:	08 95       	ret
	case 0xeb: var_keyPress_u8='7'; break; 
	case 0xed: var_keyPress_u8='4'; break; 
     2d6:	84 e3       	ldi	r24, 0x34	; 52
     2d8:	08 95       	ret
	case 0xee: var_keyPress_u8='1'; break; 
     2da:	81 e3       	ldi	r24, 0x31	; 49
     2dc:	08 95       	ret
	case 0xd7: var_keyPress_u8='0'; break; 
     2de:	80 e3       	ldi	r24, 0x30	; 48
     2e0:	08 95       	ret
	case 0xdb: var_keyPress_u8='8'; break; 
     2e2:	88 e3       	ldi	r24, 0x38	; 56
     2e4:	08 95       	ret
	case 0xdd: var_keyPress_u8='5'; break; 
     2e6:	85 e3       	ldi	r24, 0x35	; 53
     2e8:	08 95       	ret
	case 0xde: var_keyPress_u8='2'; break; 
     2ea:	82 e3       	ldi	r24, 0x32	; 50
     2ec:	08 95       	ret
	case 0xb7: var_keyPress_u8='#'; break; 
     2ee:	83 e2       	ldi	r24, 0x23	; 35
     2f0:	08 95       	ret
	case 0xbb: var_keyPress_u8='9'; break; 
     2f2:	89 e3       	ldi	r24, 0x39	; 57
     2f4:	08 95       	ret
	case 0xbd: var_keyPress_u8='6'; break; 
     2f6:	86 e3       	ldi	r24, 0x36	; 54
     2f8:	08 95       	ret
	case 0xbe: var_keyPress_u8='3'; break; 
     2fa:	83 e3       	ldi	r24, 0x33	; 51
     2fc:	08 95       	ret
	case 0x77: var_keyPress_u8='D'; break;  
     2fe:	84 e4       	ldi	r24, 0x44	; 68
     300:	08 95       	ret
	case 0x7b: var_keyPress_u8='C'; break;  
     302:	83 e4       	ldi	r24, 0x43	; 67
     304:	08 95       	ret
	case 0x7d: var_keyPress_u8='B'; break;  
     306:	82 e4       	ldi	r24, 0x42	; 66
     308:	08 95       	ret
	case 0x7e: var_keyPress_u8='A'; break;  
     30a:	81 e4       	ldi	r24, 0x41	; 65
     30c:	08 95       	ret
	default  : var_keyPress_u8='z'; break;
     30e:	8a e7       	ldi	r24, 0x7A	; 122
     310:	08 95       	ret
	var_keyPress_u8 = keypad_ScanKey();        // Scan for the key pressed.

	switch(var_keyPress_u8)                       // Decode the key
	{
	case 0xe7: var_keyPress_u8='*'; break; 
	case 0xeb: var_keyPress_u8='7'; break; 
     312:	87 e3       	ldi	r24, 0x37	; 55
	case 0x7d: var_keyPress_u8='B'; break;  
	case 0x7e: var_keyPress_u8='A'; break;  
	default  : var_keyPress_u8='z'; break;
	}
	return(var_keyPress_u8);                      // Return the key
}
     314:	08 95       	ret

00000316 <toggle_e>:

    while ( (c = pgm_read_byte(progmem_s++)) ) {
        lcd_putc(c);
    }

}/* lcd_puts_p */
     316:	85 b1       	in	r24, 0x05	; 5
     318:	80 62       	ori	r24, 0x20	; 32
     31a:	85 b9       	out	0x05, r24	; 5
     31c:	00 00       	nop
     31e:	85 b1       	in	r24, 0x05	; 5
     320:	8f 7d       	andi	r24, 0xDF	; 223
     322:	85 b9       	out	0x05, r24	; 5
     324:	08 95       	ret

00000326 <lcd_write>:
     326:	cf 93       	push	r28
     328:	c8 2f       	mov	r28, r24
     32a:	66 23       	and	r22, r22
     32c:	31 f0       	breq	.+12     	; 0x33a <lcd_write+0x14>
     32e:	e2 e0       	ldi	r30, 0x02	; 2
     330:	f1 e0       	ldi	r31, 0x01	; 1
     332:	80 81       	ld	r24, Z
     334:	80 64       	ori	r24, 0x40	; 64
     336:	80 83       	st	Z, r24
     338:	05 c0       	rjmp	.+10     	; 0x344 <lcd_write+0x1e>
     33a:	e2 e0       	ldi	r30, 0x02	; 2
     33c:	f1 e0       	ldi	r31, 0x01	; 1
     33e:	80 81       	ld	r24, Z
     340:	8f 7b       	andi	r24, 0xBF	; 191
     342:	80 83       	st	Z, r24
     344:	85 b1       	in	r24, 0x05	; 5
     346:	8f 7e       	andi	r24, 0xEF	; 239
     348:	85 b9       	out	0x05, r24	; 5
     34a:	8d b1       	in	r24, 0x0d	; 13
     34c:	80 62       	ori	r24, 0x20	; 32
     34e:	8d b9       	out	0x0d, r24	; 13
     350:	83 b3       	in	r24, 0x13	; 19
     352:	80 62       	ori	r24, 0x20	; 32
     354:	83 bb       	out	0x13, r24	; 19
     356:	8d b1       	in	r24, 0x0d	; 13
     358:	88 60       	ori	r24, 0x08	; 8
     35a:	8d b9       	out	0x0d, r24	; 13
     35c:	e1 e0       	ldi	r30, 0x01	; 1
     35e:	f1 e0       	ldi	r31, 0x01	; 1
     360:	80 81       	ld	r24, Z
     362:	88 60       	ori	r24, 0x08	; 8
     364:	80 83       	st	Z, r24
     366:	e2 e0       	ldi	r30, 0x02	; 2
     368:	f1 e0       	ldi	r31, 0x01	; 1
     36a:	80 81       	ld	r24, Z
     36c:	87 7f       	andi	r24, 0xF7	; 247
     36e:	80 83       	st	Z, r24
     370:	8e b1       	in	r24, 0x0e	; 14
     372:	87 7f       	andi	r24, 0xF7	; 247
     374:	8e b9       	out	0x0e, r24	; 14
     376:	84 b3       	in	r24, 0x14	; 20
     378:	8f 7d       	andi	r24, 0xDF	; 223
     37a:	84 bb       	out	0x14, r24	; 20
     37c:	8e b1       	in	r24, 0x0e	; 14
     37e:	8f 7d       	andi	r24, 0xDF	; 223
     380:	8e b9       	out	0x0e, r24	; 14
     382:	cc 23       	and	r28, r28
     384:	1c f4       	brge	.+6      	; 0x38c <lcd_write+0x66>
     386:	80 81       	ld	r24, Z
     388:	88 60       	ori	r24, 0x08	; 8
     38a:	80 83       	st	Z, r24
     38c:	c6 ff       	sbrs	r28, 6
     38e:	03 c0       	rjmp	.+6      	; 0x396 <lcd_write+0x70>
     390:	8e b1       	in	r24, 0x0e	; 14
     392:	88 60       	ori	r24, 0x08	; 8
     394:	8e b9       	out	0x0e, r24	; 14
     396:	c5 ff       	sbrs	r28, 5
     398:	03 c0       	rjmp	.+6      	; 0x3a0 <lcd_write+0x7a>
     39a:	84 b3       	in	r24, 0x14	; 20
     39c:	80 62       	ori	r24, 0x20	; 32
     39e:	84 bb       	out	0x14, r24	; 20
     3a0:	c4 ff       	sbrs	r28, 4
     3a2:	03 c0       	rjmp	.+6      	; 0x3aa <lcd_write+0x84>
     3a4:	8e b1       	in	r24, 0x0e	; 14
     3a6:	80 62       	ori	r24, 0x20	; 32
     3a8:	8e b9       	out	0x0e, r24	; 14
     3aa:	b5 df       	rcall	.-150    	; 0x316 <toggle_e>
     3ac:	e2 e0       	ldi	r30, 0x02	; 2
     3ae:	f1 e0       	ldi	r31, 0x01	; 1
     3b0:	80 81       	ld	r24, Z
     3b2:	87 7f       	andi	r24, 0xF7	; 247
     3b4:	80 83       	st	Z, r24
     3b6:	8e b1       	in	r24, 0x0e	; 14
     3b8:	87 7f       	andi	r24, 0xF7	; 247
     3ba:	8e b9       	out	0x0e, r24	; 14
     3bc:	84 b3       	in	r24, 0x14	; 20
     3be:	8f 7d       	andi	r24, 0xDF	; 223
     3c0:	84 bb       	out	0x14, r24	; 20
     3c2:	8e b1       	in	r24, 0x0e	; 14
     3c4:	8f 7d       	andi	r24, 0xDF	; 223
     3c6:	8e b9       	out	0x0e, r24	; 14
     3c8:	c3 ff       	sbrs	r28, 3
     3ca:	03 c0       	rjmp	.+6      	; 0x3d2 <lcd_write+0xac>
     3cc:	80 81       	ld	r24, Z
     3ce:	88 60       	ori	r24, 0x08	; 8
     3d0:	80 83       	st	Z, r24
     3d2:	c2 ff       	sbrs	r28, 2
     3d4:	03 c0       	rjmp	.+6      	; 0x3dc <lcd_write+0xb6>
     3d6:	8e b1       	in	r24, 0x0e	; 14
     3d8:	88 60       	ori	r24, 0x08	; 8
     3da:	8e b9       	out	0x0e, r24	; 14
     3dc:	c1 ff       	sbrs	r28, 1
     3de:	03 c0       	rjmp	.+6      	; 0x3e6 <lcd_write+0xc0>
     3e0:	84 b3       	in	r24, 0x14	; 20
     3e2:	80 62       	ori	r24, 0x20	; 32
     3e4:	84 bb       	out	0x14, r24	; 20
     3e6:	c0 ff       	sbrs	r28, 0
     3e8:	03 c0       	rjmp	.+6      	; 0x3f0 <lcd_write+0xca>
     3ea:	8e b1       	in	r24, 0x0e	; 14
     3ec:	80 62       	ori	r24, 0x20	; 32
     3ee:	8e b9       	out	0x0e, r24	; 14
     3f0:	92 df       	rcall	.-220    	; 0x316 <toggle_e>
     3f2:	8e b1       	in	r24, 0x0e	; 14
     3f4:	80 62       	ori	r24, 0x20	; 32
     3f6:	8e b9       	out	0x0e, r24	; 14
     3f8:	84 b3       	in	r24, 0x14	; 20
     3fa:	80 62       	ori	r24, 0x20	; 32
     3fc:	84 bb       	out	0x14, r24	; 20
     3fe:	8e b1       	in	r24, 0x0e	; 14
     400:	88 60       	ori	r24, 0x08	; 8
     402:	8e b9       	out	0x0e, r24	; 14
     404:	e2 e0       	ldi	r30, 0x02	; 2
     406:	f1 e0       	ldi	r31, 0x01	; 1
     408:	80 81       	ld	r24, Z
     40a:	88 60       	ori	r24, 0x08	; 8
     40c:	80 83       	st	Z, r24
     40e:	cf 91       	pop	r28
     410:	08 95       	ret

00000412 <lcd_read>:
     412:	88 23       	and	r24, r24
     414:	31 f0       	breq	.+12     	; 0x422 <lcd_read+0x10>
     416:	e2 e0       	ldi	r30, 0x02	; 2
     418:	f1 e0       	ldi	r31, 0x01	; 1
     41a:	80 81       	ld	r24, Z
     41c:	80 64       	ori	r24, 0x40	; 64
     41e:	80 83       	st	Z, r24
     420:	05 c0       	rjmp	.+10     	; 0x42c <lcd_read+0x1a>
     422:	e2 e0       	ldi	r30, 0x02	; 2
     424:	f1 e0       	ldi	r31, 0x01	; 1
     426:	80 81       	ld	r24, Z
     428:	8f 7b       	andi	r24, 0xBF	; 191
     42a:	80 83       	st	Z, r24
     42c:	85 b1       	in	r24, 0x05	; 5
     42e:	80 61       	ori	r24, 0x10	; 16
     430:	85 b9       	out	0x05, r24	; 5
     432:	8d b1       	in	r24, 0x0d	; 13
     434:	8f 7d       	andi	r24, 0xDF	; 223
     436:	8d b9       	out	0x0d, r24	; 13
     438:	83 b3       	in	r24, 0x13	; 19
     43a:	8f 7d       	andi	r24, 0xDF	; 223
     43c:	83 bb       	out	0x13, r24	; 19
     43e:	8d b1       	in	r24, 0x0d	; 13
     440:	87 7f       	andi	r24, 0xF7	; 247
     442:	8d b9       	out	0x0d, r24	; 13
     444:	e1 e0       	ldi	r30, 0x01	; 1
     446:	f1 e0       	ldi	r31, 0x01	; 1
     448:	80 81       	ld	r24, Z
     44a:	87 7f       	andi	r24, 0xF7	; 247
     44c:	80 83       	st	Z, r24
     44e:	85 b1       	in	r24, 0x05	; 5
     450:	80 62       	ori	r24, 0x20	; 32
     452:	85 b9       	out	0x05, r24	; 5
     454:	00 00       	nop
     456:	65 99       	sbic	0x0c, 5	; 12
     458:	02 c0       	rjmp	.+4      	; 0x45e <lcd_read+0x4c>
     45a:	80 e0       	ldi	r24, 0x00	; 0
     45c:	01 c0       	rjmp	.+2      	; 0x460 <lcd_read+0x4e>
     45e:	80 e1       	ldi	r24, 0x10	; 16
     460:	95 99       	sbic	0x12, 5	; 18
     462:	80 62       	ori	r24, 0x20	; 32
     464:	63 99       	sbic	0x0c, 3	; 12
     466:	80 64       	ori	r24, 0x40	; 64
     468:	90 91 00 01 	lds	r25, 0x0100	; 0x800100 <__TEXT_REGION_LENGTH__+0x7c0100>
     46c:	93 fd       	sbrc	r25, 3
     46e:	80 68       	ori	r24, 0x80	; 128
     470:	95 b1       	in	r25, 0x05	; 5
     472:	9f 7d       	andi	r25, 0xDF	; 223
     474:	95 b9       	out	0x05, r25	; 5
     476:	00 00       	nop
     478:	95 b1       	in	r25, 0x05	; 5
     47a:	90 62       	ori	r25, 0x20	; 32
     47c:	95 b9       	out	0x05, r25	; 5
     47e:	00 00       	nop
     480:	65 99       	sbic	0x0c, 5	; 12
     482:	81 60       	ori	r24, 0x01	; 1
     484:	95 99       	sbic	0x12, 5	; 18
     486:	82 60       	ori	r24, 0x02	; 2
     488:	63 99       	sbic	0x0c, 3	; 12
     48a:	84 60       	ori	r24, 0x04	; 4
     48c:	90 91 00 01 	lds	r25, 0x0100	; 0x800100 <__TEXT_REGION_LENGTH__+0x7c0100>
     490:	93 fd       	sbrc	r25, 3
     492:	88 60       	ori	r24, 0x08	; 8
     494:	95 b1       	in	r25, 0x05	; 5
     496:	9f 7d       	andi	r25, 0xDF	; 223
     498:	95 b9       	out	0x05, r25	; 5
     49a:	08 95       	ret

0000049c <lcd_waitbusy>:
     49c:	80 e0       	ldi	r24, 0x00	; 0
     49e:	b9 df       	rcall	.-142    	; 0x412 <lcd_read>
     4a0:	88 23       	and	r24, r24
     4a2:	e4 f3       	brlt	.-8      	; 0x49c <lcd_waitbusy>
     4a4:	00 c0       	rjmp	.+0      	; 0x4a6 <lcd_waitbusy+0xa>
     4a6:	00 c0       	rjmp	.+0      	; 0x4a8 <lcd_waitbusy+0xc>
     4a8:	80 e0       	ldi	r24, 0x00	; 0
     4aa:	b3 cf       	rjmp	.-154    	; 0x412 <lcd_read>
     4ac:	08 95       	ret

000004ae <lcd_command>:
     4ae:	cf 93       	push	r28
     4b0:	c8 2f       	mov	r28, r24
     4b2:	f4 df       	rcall	.-24     	; 0x49c <lcd_waitbusy>
     4b4:	60 e0       	ldi	r22, 0x00	; 0
     4b6:	8c 2f       	mov	r24, r28
     4b8:	36 df       	rcall	.-404    	; 0x326 <lcd_write>
     4ba:	cf 91       	pop	r28
     4bc:	08 95       	ret

000004be <lcd_gotoxy>:
     4be:	61 11       	cpse	r22, r1
     4c0:	03 c0       	rjmp	.+6      	; 0x4c8 <lcd_gotoxy+0xa>
     4c2:	80 58       	subi	r24, 0x80	; 128
     4c4:	f4 cf       	rjmp	.-24     	; 0x4ae <lcd_command>
     4c6:	08 95       	ret
     4c8:	80 54       	subi	r24, 0x40	; 64
     4ca:	f1 cf       	rjmp	.-30     	; 0x4ae <lcd_command>
     4cc:	08 95       	ret

000004ce <lcd_clrscr>:
     4ce:	81 e0       	ldi	r24, 0x01	; 1
     4d0:	ee cf       	rjmp	.-36     	; 0x4ae <lcd_command>
     4d2:	08 95       	ret

000004d4 <lcd_putc>:
     4d4:	cf 93       	push	r28
     4d6:	c8 2f       	mov	r28, r24
     4d8:	e1 df       	rcall	.-62     	; 0x49c <lcd_waitbusy>
     4da:	ca 30       	cpi	r28, 0x0A	; 10
     4dc:	41 f4       	brne	.+16     	; 0x4ee <lcd_putc+0x1a>
     4de:	80 34       	cpi	r24, 0x40	; 64
     4e0:	10 f4       	brcc	.+4      	; 0x4e6 <lcd_putc+0x12>
     4e2:	80 e4       	ldi	r24, 0x40	; 64
     4e4:	01 c0       	rjmp	.+2      	; 0x4e8 <lcd_putc+0x14>
     4e6:	80 e0       	ldi	r24, 0x00	; 0
     4e8:	80 58       	subi	r24, 0x80	; 128
     4ea:	e1 df       	rcall	.-62     	; 0x4ae <lcd_command>
     4ec:	03 c0       	rjmp	.+6      	; 0x4f4 <lcd_putc+0x20>
     4ee:	61 e0       	ldi	r22, 0x01	; 1
     4f0:	8c 2f       	mov	r24, r28
     4f2:	19 df       	rcall	.-462    	; 0x326 <lcd_write>
     4f4:	cf 91       	pop	r28
     4f6:	08 95       	ret

000004f8 <lcd_puts>:
     4f8:	cf 93       	push	r28
     4fa:	df 93       	push	r29
     4fc:	fc 01       	movw	r30, r24
     4fe:	02 c0       	rjmp	.+4      	; 0x504 <lcd_puts+0xc>
     500:	e9 df       	rcall	.-46     	; 0x4d4 <lcd_putc>
     502:	fe 01       	movw	r30, r28
     504:	ef 01       	movw	r28, r30
     506:	21 96       	adiw	r28, 0x01	; 1
     508:	80 81       	ld	r24, Z
     50a:	81 11       	cpse	r24, r1
     50c:	f9 cf       	rjmp	.-14     	; 0x500 <lcd_puts+0x8>
     50e:	df 91       	pop	r29
     510:	cf 91       	pop	r28
     512:	08 95       	ret

00000514 <lcd_init>:
                   LCD_DISP_ON_CURSOR      display on, cursor on
                   LCD_DISP_CURSOR_BLINK   display on, cursor on flashing
Returns:  none
*************************************************************************/
void lcd_init(uint8_t dispAttr)
{
     514:	cf 93       	push	r28
     516:	c8 2f       	mov	r28, r24
        DDR(LCD_E_PORT)     |= _BV(LCD_E_PIN);
    }
    else
    {
        /* configure all port bits as output (LCD data and control lines on different ports */
        DDR(LCD_RS_PORT)    |= _BV(LCD_RS_PIN);
     518:	e1 e0       	ldi	r30, 0x01	; 1
     51a:	f1 e0       	ldi	r31, 0x01	; 1
     51c:	80 81       	ld	r24, Z
     51e:	80 64       	ori	r24, 0x40	; 64
     520:	80 83       	st	Z, r24
        DDR(LCD_RW_PORT)    |= _BV(LCD_RW_PIN);
     522:	84 b1       	in	r24, 0x04	; 4
     524:	80 61       	ori	r24, 0x10	; 16
     526:	84 b9       	out	0x04, r24	; 4
        DDR(LCD_E_PORT)     |= _BV(LCD_E_PIN);
     528:	84 b1       	in	r24, 0x04	; 4
     52a:	80 62       	ori	r24, 0x20	; 32
     52c:	84 b9       	out	0x04, r24	; 4
        DDR(LCD_DATA0_PORT) |= _BV(LCD_DATA0_PIN);
     52e:	8d b1       	in	r24, 0x0d	; 13
     530:	80 62       	ori	r24, 0x20	; 32
     532:	8d b9       	out	0x0d, r24	; 13
        DDR(LCD_DATA1_PORT) |= _BV(LCD_DATA1_PIN);
     534:	83 b3       	in	r24, 0x13	; 19
     536:	80 62       	ori	r24, 0x20	; 32
     538:	83 bb       	out	0x13, r24	; 19
        DDR(LCD_DATA2_PORT) |= _BV(LCD_DATA2_PIN);
     53a:	8d b1       	in	r24, 0x0d	; 13
     53c:	88 60       	ori	r24, 0x08	; 8
     53e:	8d b9       	out	0x0d, r24	; 13
        DDR(LCD_DATA3_PORT) |= _BV(LCD_DATA3_PIN);
     540:	80 81       	ld	r24, Z
     542:	88 60       	ori	r24, 0x08	; 8
     544:	80 83       	st	Z, r24
	#else
		//round up by default
		__ticks_dc = (uint32_t)(ceil(fabs(__tmp)));
	#endif

	__builtin_avr_delay_cycles(__ticks_dc);
     546:	8f e9       	ldi	r24, 0x9F	; 159
     548:	9f e0       	ldi	r25, 0x0F	; 15
     54a:	01 97       	sbiw	r24, 0x01	; 1
     54c:	f1 f7       	brne	.-4      	; 0x54a <lcd_init+0x36>
     54e:	00 c0       	rjmp	.+0      	; 0x550 <lcd_init+0x3c>
     550:	00 00       	nop
    }
    delay(LCD_DELAY_BOOTUP);             /* wait 16ms or more after power-on       */
    
    /* initial write to lcd is 8bit */
    LCD_DATA1_PORT |= _BV(LCD_DATA1_PIN);    // LCD_FUNCTION>>4;
     552:	84 b3       	in	r24, 0x14	; 20
     554:	80 62       	ori	r24, 0x20	; 32
     556:	84 bb       	out	0x14, r24	; 20
    LCD_DATA0_PORT |= _BV(LCD_DATA0_PIN);    // LCD_FUNCTION_8BIT>>4;
     558:	8e b1       	in	r24, 0x0e	; 14
     55a:	80 62       	ori	r24, 0x20	; 32
     55c:	8e b9       	out	0x0e, r24	; 14
    lcd_e_toggle();
     55e:	db de       	rcall	.-586    	; 0x316 <toggle_e>
     560:	81 ee       	ldi	r24, 0xE1	; 225
     562:	94 e0       	ldi	r25, 0x04	; 4
     564:	01 97       	sbiw	r24, 0x01	; 1
     566:	f1 f7       	brne	.-4      	; 0x564 <lcd_init+0x50>
     568:	00 c0       	rjmp	.+0      	; 0x56a <lcd_init+0x56>
    delay(LCD_DELAY_INIT);               /* delay, busy flag can't be checked here */
   
    /* repeat last command */ 
    lcd_e_toggle();      
     56a:	00 00       	nop
     56c:	d4 de       	rcall	.-600    	; 0x316 <toggle_e>
     56e:	95 e1       	ldi	r25, 0x15	; 21
     570:	9a 95       	dec	r25
     572:	f1 f7       	brne	.-4      	; 0x570 <lcd_init+0x5c>
    delay(LCD_DELAY_INIT_REP);           /* delay, busy flag can't be checked here */
    
    /* repeat last command a third time */
    lcd_e_toggle();      
     574:	00 00       	nop
     576:	cf de       	rcall	.-610    	; 0x316 <toggle_e>
     578:	85 e1       	ldi	r24, 0x15	; 21
     57a:	8a 95       	dec	r24
     57c:	f1 f7       	brne	.-4      	; 0x57a <lcd_init+0x66>
     57e:	00 00       	nop
    delay(LCD_DELAY_INIT_REP);           /* delay, busy flag can't be checked here */

    /* now configure for 4bit mode */
    LCD_DATA0_PORT &= ~_BV(LCD_DATA0_PIN);   // LCD_FUNCTION_4BIT_1LINE>>4
     580:	8e b1       	in	r24, 0x0e	; 14
     582:	8f 7d       	andi	r24, 0xDF	; 223
    lcd_e_toggle();
     584:	8e b9       	out	0x0e, r24	; 14
     586:	c7 de       	rcall	.-626    	; 0x316 <toggle_e>
     588:	95 e1       	ldi	r25, 0x15	; 21
     58a:	9a 95       	dec	r25
     58c:	f1 f7       	brne	.-4      	; 0x58a <lcd_init+0x76>
    /* Display with KS0073 controller requires special commands for enabling 4 line mode */
	lcd_command(KS0073_EXTENDED_FUNCTION_REGISTER_ON);
	lcd_command(KS0073_4LINES_MODE);
	lcd_command(KS0073_EXTENDED_FUNCTION_REGISTER_OFF);
#else
    lcd_command(LCD_FUNCTION_DEFAULT);      /* function set: display lines  */
     58e:	00 00       	nop
     590:	88 e2       	ldi	r24, 0x28	; 40
#endif
    lcd_command(LCD_DISP_OFF);              /* display off                  */
     592:	8d df       	rcall	.-230    	; 0x4ae <lcd_command>
     594:	88 e0       	ldi	r24, 0x08	; 8
    lcd_clrscr();                           /* display clear                */ 
     596:	8b df       	rcall	.-234    	; 0x4ae <lcd_command>
     598:	9a df       	rcall	.-204    	; 0x4ce <lcd_clrscr>
    lcd_command(LCD_MODE_DEFAULT);          /* set entry mode               */
     59a:	86 e0       	ldi	r24, 0x06	; 6
     59c:	88 df       	rcall	.-240    	; 0x4ae <lcd_command>
     59e:	8c 2f       	mov	r24, r28
    lcd_command(dispAttr);                  /* display/cursor control       */
     5a0:	86 df       	rcall	.-244    	; 0x4ae <lcd_command>
     5a2:	cf 91       	pop	r28
     5a4:	08 95       	ret

000005a6 <TWI_init>:

}/* lcd_init */
     5a6:	88 e4       	ldi	r24, 0x48	; 72
     5a8:	80 93 b8 00 	sts	0x00B8, r24	; 0x8000b8 <__TEXT_REGION_LENGTH__+0x7c00b8>
// Initialize TWI as master
void TWI_init(void) {
	// Set SCL frequency: TWBR = ((F_CPU / SCL_freq) - 16) / (2 * prescaler)
	// For 100kHz with 16MHz CPU and prescaler=1: TWBR = ((16000000/100000)-16)/2 = 72
	TWBR = 72;  // Set bit rate register
	TWSR = 0;   // Prescaler = 1
     5ac:	10 92 b9 00 	sts	0x00B9, r1	; 0x8000b9 <__TEXT_REGION_LENGTH__+0x7c00b9>
     5b0:	08 95       	ret

000005b2 <TWI_stop>:
}

// Stop TWI transmission
void TWI_stop(void) {
	// Send STOP condition
	TWCR = (1 << TWINT) | (1 << TWEN) | (1 << TWSTO);
     5b2:	84 e9       	ldi	r24, 0x94	; 148
     5b4:	80 93 bc 00 	sts	0x00BC, r24	; 0x8000bc <__TEXT_REGION_LENGTH__+0x7c00bc>
	#else
		//round up by default
		__ticks_dc = (uint32_t)(ceil(fabs(__tmp)));
	#endif

	__builtin_avr_delay_cycles(__ticks_dc);
     5b8:	8f e9       	ldi	r24, 0x9F	; 159
     5ba:	9f e0       	ldi	r25, 0x0F	; 15
     5bc:	01 97       	sbiw	r24, 0x01	; 1
     5be:	f1 f7       	brne	.-4      	; 0x5bc <TWI_stop+0xa>
     5c0:	00 c0       	rjmp	.+0      	; 0x5c2 <TWI_stop+0x10>
     5c2:	00 00       	nop
     5c4:	08 95       	ret

000005c6 <UART_init>:
}

// Initialize UART for debugging
void UART_init(void) {
	// Set baud rate to 9600 for 16MHz: UBRR = (F_CPU/(16*BAUD))-1 = 103
	UBRR0H = 0;
     5c6:	10 92 c5 00 	sts	0x00C5, r1	; 0x8000c5 <__TEXT_REGION_LENGTH__+0x7c00c5>
	UBRR0L = 103;
     5ca:	87 e6       	ldi	r24, 0x67	; 103
     5cc:	80 93 c4 00 	sts	0x00C4, r24	; 0x8000c4 <__TEXT_REGION_LENGTH__+0x7c00c4>
	
	// Enable transmitter
	UCSR0B = (1 << TXEN0);
     5d0:	88 e0       	ldi	r24, 0x08	; 8
     5d2:	80 93 c1 00 	sts	0x00C1, r24	; 0x8000c1 <__TEXT_REGION_LENGTH__+0x7c00c1>
	
	// Set frame format: 8 data bits, 1 stop bit, no parity
	UCSR0C = (1 << UCSZ01) | (1 << UCSZ00);
     5d6:	86 e0       	ldi	r24, 0x06	; 6
     5d8:	80 93 c2 00 	sts	0x00C2, r24	; 0x8000c2 <__TEXT_REGION_LENGTH__+0x7c00c2>
     5dc:	08 95       	ret

000005de <UART_send_char>:
}

// Send a character through UART
void UART_send_char(unsigned char data) {
	// Wait for empty transmit buffer
	while (!(UCSR0A & (1 << UDRE0)));
     5de:	90 91 c0 00 	lds	r25, 0x00C0	; 0x8000c0 <__TEXT_REGION_LENGTH__+0x7c00c0>
     5e2:	95 ff       	sbrs	r25, 5
     5e4:	fc cf       	rjmp	.-8      	; 0x5de <UART_send_char>
	
	// Put data into buffer
	UDR0 = data;
     5e6:	80 93 c6 00 	sts	0x00C6, r24	; 0x8000c6 <__TEXT_REGION_LENGTH__+0x7c00c6>
     5ea:	08 95       	ret

000005ec <UART_send_string>:
}

// Send a string through UART
void UART_send_string(char* str) {
     5ec:	cf 93       	push	r28
     5ee:	df 93       	push	r29
     5f0:	ec 01       	movw	r28, r24
	// Send each character until null terminator
	while (*str) {
     5f2:	02 c0       	rjmp	.+4      	; 0x5f8 <UART_send_string+0xc>
		UART_send_char(*str++);
     5f4:	21 96       	adiw	r28, 0x01	; 1
     5f6:	f3 df       	rcall	.-26     	; 0x5de <UART_send_char>
}

// Send a string through UART
void UART_send_string(char* str) {
	// Send each character until null terminator
	while (*str) {
     5f8:	88 81       	ld	r24, Y
     5fa:	81 11       	cpse	r24, r1
     5fc:	fb cf       	rjmp	.-10     	; 0x5f4 <UART_send_string+0x8>
		UART_send_char(*str++);
	}
}
     5fe:	df 91       	pop	r29
     600:	cf 91       	pop	r28
     602:	08 95       	ret

00000604 <TWI_start>:
	TWBR = 72;  // Set bit rate register
	TWSR = 0;   // Prescaler = 1
}

// Start TWI transmission
uint8_t TWI_start(void) {
     604:	cf 93       	push	r28
     606:	df 93       	push	r29
	// Send START condition
	TWCR = (1 << TWINT) | (1 << TWSTA) | (1 << TWEN);
     608:	84 ea       	ldi	r24, 0xA4	; 164
     60a:	80 93 bc 00 	sts	0x00BC, r24	; 0x8000bc <__TEXT_REGION_LENGTH__+0x7c00bc>
	
	// Wait for TWINT flag to be set
	while (!(TWCR & (1 << TWINT)));
     60e:	80 91 bc 00 	lds	r24, 0x00BC	; 0x8000bc <__TEXT_REGION_LENGTH__+0x7c00bc>
     612:	88 23       	and	r24, r24
     614:	e4 f7       	brge	.-8      	; 0x60e <TWI_start+0xa>
	
	// Check if START was sent successfully (status code 0x08)
	if ((TWSR & 0xF8) != 0x08) {
     616:	80 91 b9 00 	lds	r24, 0x00B9	; 0x8000b9 <__TEXT_REGION_LENGTH__+0x7c00b9>
     61a:	88 7f       	andi	r24, 0xF8	; 248
     61c:	88 30       	cpi	r24, 0x08	; 8
     61e:	99 f0       	breq	.+38     	; 0x646 <TWI_start+0x42>
		UART_send_string("TWI start error: 0x");
     620:	80 e0       	ldi	r24, 0x00	; 0
     622:	92 e0       	ldi	r25, 0x02	; 2
     624:	e3 df       	rcall	.-58     	; 0x5ec <UART_send_string>
		UART_send_char('0' + ((TWSR & 0xF8) >> 4));
     626:	c9 eb       	ldi	r28, 0xB9	; 185
     628:	d0 e0       	ldi	r29, 0x00	; 0
     62a:	88 81       	ld	r24, Y
     62c:	82 95       	swap	r24
     62e:	8f 70       	andi	r24, 0x0F	; 15
     630:	80 5d       	subi	r24, 0xD0	; 208
     632:	d5 df       	rcall	.-86     	; 0x5de <UART_send_char>
		UART_send_char('0' + (TWSR & 0x0F));
     634:	88 81       	ld	r24, Y
     636:	8f 70       	andi	r24, 0x0F	; 15
     638:	80 5d       	subi	r24, 0xD0	; 208
     63a:	d1 df       	rcall	.-94     	; 0x5de <UART_send_char>
		UART_send_string("\r\n");
     63c:	8a ed       	ldi	r24, 0xDA	; 218
     63e:	92 e0       	ldi	r25, 0x02	; 2
     640:	d5 df       	rcall	.-86     	; 0x5ec <UART_send_string>
     642:	80 e0       	ldi	r24, 0x00	; 0
		return 0;  // Error: START not acknowledged
     644:	01 c0       	rjmp	.+2      	; 0x648 <TWI_start+0x44>
     646:	81 e0       	ldi	r24, 0x01	; 1
	}
	
	return 1;  // Success
     648:	df 91       	pop	r29
}
     64a:	cf 91       	pop	r28
     64c:	08 95       	ret

0000064e <TWI_write>:
     64e:	cf 93       	push	r28

// Write a byte to the TWI bus
uint8_t TWI_write(uint8_t data) {
     650:	df 93       	push	r29
	// Load data into TWDR register
	TWDR = data;
     652:	80 93 bb 00 	sts	0x00BB, r24	; 0x8000bb <__TEXT_REGION_LENGTH__+0x7c00bb>
	
	// Start transmission
	TWCR = (1 << TWINT) | (1 << TWEN);
     656:	84 e8       	ldi	r24, 0x84	; 132
     658:	80 93 bc 00 	sts	0x00BC, r24	; 0x8000bc <__TEXT_REGION_LENGTH__+0x7c00bc>
	
	// Wait for TWINT flag to be set
	while (!(TWCR & (1 << TWINT)));
     65c:	80 91 bc 00 	lds	r24, 0x00BC	; 0x8000bc <__TEXT_REGION_LENGTH__+0x7c00bc>
     660:	88 23       	and	r24, r24
     662:	e4 f7       	brge	.-8      	; 0x65c <TWI_write+0xe>
	
	// Check status
	uint8_t status = TWSR & 0xF8;
     664:	d0 91 b9 00 	lds	r29, 0x00B9	; 0x8000b9 <__TEXT_REGION_LENGTH__+0x7c00b9>
     668:	cd 2f       	mov	r28, r29
     66a:	c8 7f       	andi	r28, 0xF8	; 248
	
	// For SLA+W, we expect 0x18 (ACK) or 0x20 (NACK)
	// For data byte, we expect 0x28 (ACK) or 0x30 (NACK)
	if (status != 0x18 && status != 0x28) {
     66c:	c8 31       	cpi	r28, 0x18	; 24
     66e:	99 f0       	breq	.+38     	; 0x696 <TWI_write+0x48>
     670:	c8 32       	cpi	r28, 0x28	; 40
     672:	99 f0       	breq	.+38     	; 0x69a <TWI_write+0x4c>
		UART_send_string("TWI write error: 0x");
     674:	84 e1       	ldi	r24, 0x14	; 20
     676:	92 e0       	ldi	r25, 0x02	; 2
     678:	b9 df       	rcall	.-142    	; 0x5ec <UART_send_string>
		UART_send_char('0' + (status >> 4));
     67a:	8c 2f       	mov	r24, r28
     67c:	82 95       	swap	r24
     67e:	8f 70       	andi	r24, 0x0F	; 15
     680:	80 5d       	subi	r24, 0xD0	; 208
     682:	ad df       	rcall	.-166    	; 0x5de <UART_send_char>
		UART_send_char('0' + (status & 0x0F));
     684:	8d 2f       	mov	r24, r29
     686:	88 70       	andi	r24, 0x08	; 8
     688:	80 5d       	subi	r24, 0xD0	; 208
     68a:	a9 df       	rcall	.-174    	; 0x5de <UART_send_char>
		UART_send_string("\r\n");
     68c:	8a ed       	ldi	r24, 0xDA	; 218
     68e:	92 e0       	ldi	r25, 0x02	; 2
     690:	ad df       	rcall	.-166    	; 0x5ec <UART_send_string>
     692:	80 e0       	ldi	r24, 0x00	; 0
		return 0;  // Error
     694:	03 c0       	rjmp	.+6      	; 0x69c <TWI_write+0x4e>
     696:	81 e0       	ldi	r24, 0x01	; 1
	}
	
	return 1;  // Success
     698:	01 c0       	rjmp	.+2      	; 0x69c <TWI_write+0x4e>
     69a:	81 e0       	ldi	r24, 0x01	; 1
     69c:	df 91       	pop	r29
}
     69e:	cf 91       	pop	r28
     6a0:	08 95       	ret

000006a2 <send_command>:
     6a2:	cf 93       	push	r28
	}
	return ptr;
}

// Send a command to the slave device
void send_command(char cmd) {
     6a4:	c8 2f       	mov	r28, r24
	UART_send_string("Sending command: ");
     6a6:	88 e2       	ldi	r24, 0x28	; 40
     6a8:	92 e0       	ldi	r25, 0x02	; 2
     6aa:	a0 df       	rcall	.-192    	; 0x5ec <UART_send_string>
	UART_send_char(cmd);
     6ac:	8c 2f       	mov	r24, r28
     6ae:	97 df       	rcall	.-210    	; 0x5de <UART_send_char>
	UART_send_string("\r\n");
     6b0:	8a ed       	ldi	r24, 0xDA	; 218
     6b2:	92 e0       	ldi	r25, 0x02	; 2
	
	if (TWI_start()) {
     6b4:	9b df       	rcall	.-202    	; 0x5ec <UART_send_string>
     6b6:	a6 df       	rcall	.-180    	; 0x604 <TWI_start>
     6b8:	88 23       	and	r24, r24
		UART_send_string("TWI started\r\n");
     6ba:	51 f1       	breq	.+84     	; 0x710 <send_command+0x6e>
     6bc:	8a e3       	ldi	r24, 0x3A	; 58
     6be:	92 e0       	ldi	r25, 0x02	; 2
		
		if (TWI_write((SLAVE_ADDRESS << 1) | 0)) {  // SLA+W
     6c0:	95 df       	rcall	.-214    	; 0x5ec <UART_send_string>
     6c2:	8e ea       	ldi	r24, 0xAE	; 174
     6c4:	c4 df       	rcall	.-120    	; 0x64e <TWI_write>
     6c6:	88 23       	and	r24, r24
			if (TWI_write(cmd)) {
     6c8:	d9 f0       	breq	.+54     	; 0x700 <send_command+0x5e>
     6ca:	8c 2f       	mov	r24, r28
     6cc:	c0 df       	rcall	.-128    	; 0x64e <TWI_write>
     6ce:	88 23       	and	r24, r24
				UART_send_string("Command sent successfully\r\n");
     6d0:	99 f0       	breq	.+38     	; 0x6f8 <send_command+0x56>
     6d2:	88 e4       	ldi	r24, 0x48	; 72
     6d4:	92 e0       	ldi	r25, 0x02	; 2
     6d6:	8a df       	rcall	.-236    	; 0x5ec <UART_send_string>
				// Flash an indicator LED on the master
				PORTB |= (1 << PB7);  // Turn on LED on pin 13
     6d8:	85 b1       	in	r24, 0x05	; 5
     6da:	80 68       	ori	r24, 0x80	; 128
     6dc:	85 b9       	out	0x05, r24	; 5
     6de:	2f ef       	ldi	r18, 0xFF	; 255
     6e0:	81 ee       	ldi	r24, 0xE1	; 225
     6e2:	94 e0       	ldi	r25, 0x04	; 4
     6e4:	21 50       	subi	r18, 0x01	; 1
     6e6:	80 40       	sbci	r24, 0x00	; 0
     6e8:	90 40       	sbci	r25, 0x00	; 0
     6ea:	e1 f7       	brne	.-8      	; 0x6e4 <send_command+0x42>
     6ec:	00 c0       	rjmp	.+0      	; 0x6ee <send_command+0x4c>
				_delay_ms(100);
				PORTB &= ~(1 << PB7); // Turn off LED
     6ee:	00 00       	nop
     6f0:	85 b1       	in	r24, 0x05	; 5
     6f2:	8f 77       	andi	r24, 0x7F	; 127
			} else {
				UART_send_string("Failed to send command\r\n");
     6f4:	85 b9       	out	0x05, r24	; 5
     6f6:	07 c0       	rjmp	.+14     	; 0x706 <send_command+0x64>
     6f8:	84 e6       	ldi	r24, 0x64	; 100
     6fa:	92 e0       	ldi	r25, 0x02	; 2
			}
		} else {
			UART_send_string("Slave not responding\r\n");
     6fc:	77 df       	rcall	.-274    	; 0x5ec <UART_send_string>
     6fe:	03 c0       	rjmp	.+6      	; 0x706 <send_command+0x64>
     700:	8d e7       	ldi	r24, 0x7D	; 125
		}		
		TWI_stop();
     702:	92 e0       	ldi	r25, 0x02	; 2
     704:	73 df       	rcall	.-282    	; 0x5ec <UART_send_string>
		UART_send_string("TWI stopped\r\n");
     706:	55 df       	rcall	.-342    	; 0x5b2 <TWI_stop>
     708:	84 e9       	ldi	r24, 0x94	; 148
     70a:	92 e0       	ldi	r25, 0x02	; 2
     70c:	6f df       	rcall	.-290    	; 0x5ec <UART_send_string>
     70e:	03 c0       	rjmp	.+6      	; 0x716 <send_command+0x74>
	} else {
		UART_send_string("TWI start failed\r\n");
     710:	82 ea       	ldi	r24, 0xA2	; 162
     712:	92 e0       	ldi	r25, 0x02	; 2
     714:	6b df       	rcall	.-298    	; 0x5ec <UART_send_string>
     716:	cf 91       	pop	r28
	}
}
     718:	08 95       	ret

0000071a <clear_LCD_line>:
     71a:	cf 93       	push	r28
	clear_LCD_line(1);
	lcd_puts(str);
}

// Clear one line (row) from LCD
void clear_LCD_line(uint8_t row){
     71c:	df 93       	push	r29
     71e:	d8 2f       	mov	r29, r24
	lcd_gotoxy(0, row);
     720:	68 2f       	mov	r22, r24
     722:	80 e0       	ldi	r24, 0x00	; 0
     724:	cc de       	rcall	.-616    	; 0x4be <lcd_gotoxy>
	for(uint8_t i=0; i < 16; i++)
     726:	c0 e0       	ldi	r28, 0x00	; 0
     728:	03 c0       	rjmp	.+6      	; 0x730 <clear_LCD_line+0x16>
		lcd_putc(' ');
     72a:	80 e2       	ldi	r24, 0x20	; 32
     72c:	d3 de       	rcall	.-602    	; 0x4d4 <lcd_putc>
}

// Clear one line (row) from LCD
void clear_LCD_line(uint8_t row){
	lcd_gotoxy(0, row);
	for(uint8_t i=0; i < 16; i++)
     72e:	cf 5f       	subi	r28, 0xFF	; 255
     730:	c0 31       	cpi	r28, 0x10	; 16
     732:	d8 f3       	brcs	.-10     	; 0x72a <clear_LCD_line+0x10>
		lcd_putc(' ');
	lcd_gotoxy(0,row);
     734:	6d 2f       	mov	r22, r29
     736:	80 e0       	ldi	r24, 0x00	; 0
     738:	c2 de       	rcall	.-636    	; 0x4be <lcd_gotoxy>
     73a:	df 91       	pop	r29
     73c:	cf 91       	pop	r28
     73e:	08 95       	ret

00000740 <LCD_top>:
		UART_send_char(*str++);
	}
}

// LCD display top row updates when elevator gives new information to user
void LCD_top(const char* msg) {
     740:	cf 93       	push	r28
     742:	df 93       	push	r29
     744:	ec 01       	movw	r28, r24
	lcd_gotoxy(0,0);
     746:	60 e0       	ldi	r22, 0x00	; 0
     748:	80 e0       	ldi	r24, 0x00	; 0
     74a:	b9 de       	rcall	.-654    	; 0x4be <lcd_gotoxy>
	clear_LCD_line(0);
     74c:	80 e0       	ldi	r24, 0x00	; 0
     74e:	e5 df       	rcall	.-54     	; 0x71a <clear_LCD_line>
	lcd_puts(msg);
     750:	ce 01       	movw	r24, r28
     752:	d2 de       	rcall	.-604    	; 0x4f8 <lcd_puts>
     754:	df 91       	pop	r29
}
     756:	cf 91       	pop	r28
     758:	08 95       	ret

0000075a <door_open_close>:
     75a:	85 eb       	ldi	r24, 0xB5	; 181
	}
	return 0;
}

void door_open_close(){
	UART_send_string("Door open!\r\n");
     75c:	92 e0       	ldi	r25, 0x02	; 2
     75e:	46 df       	rcall	.-372    	; 0x5ec <UART_send_string>
	send_command('O');
     760:	8f e4       	ldi	r24, 0x4F	; 79
     762:	9f df       	rcall	.-194    	; 0x6a2 <send_command>
	LCD_top("Door is open");
     764:	82 ec       	ldi	r24, 0xC2	; 194
     766:	92 e0       	ldi	r25, 0x02	; 2
     768:	eb df       	rcall	.-42     	; 0x740 <LCD_top>
     76a:	2f ef       	ldi	r18, 0xFF	; 255
     76c:	83 e2       	ldi	r24, 0x23	; 35
     76e:	94 ef       	ldi	r25, 0xF4	; 244
     770:	21 50       	subi	r18, 0x01	; 1
     772:	80 40       	sbci	r24, 0x00	; 0
     774:	90 40       	sbci	r25, 0x00	; 0
     776:	e1 f7       	brne	.-8      	; 0x770 <door_open_close+0x16>
     778:	00 c0       	rjmp	.+0      	; 0x77a <door_open_close+0x20>
	_delay_ms(5000);
	
	UART_send_string("Door close!\r\n");
     77a:	00 00       	nop
     77c:	8f ec       	ldi	r24, 0xCF	; 207
     77e:	92 e0       	ldi	r25, 0x02	; 2
	send_command('C');
     780:	35 df       	rcall	.-406    	; 0x5ec <UART_send_string>
     782:	83 e4       	ldi	r24, 0x43	; 67
	LCD_top("Door is closed");
     784:	8e df       	rcall	.-228    	; 0x6a2 <send_command>
     786:	8d ed       	ldi	r24, 0xDD	; 221
     788:	92 e0       	ldi	r25, 0x02	; 2
     78a:	da df       	rcall	.-76     	; 0x740 <LCD_top>
     78c:	2f ef       	ldi	r18, 0xFF	; 255
     78e:	83 ed       	ldi	r24, 0xD3	; 211
     790:	90 e3       	ldi	r25, 0x30	; 48
     792:	21 50       	subi	r18, 0x01	; 1
     794:	80 40       	sbci	r24, 0x00	; 0
     796:	90 40       	sbci	r25, 0x00	; 0
     798:	e1 f7       	brne	.-8      	; 0x792 <door_open_close+0x38>
     79a:	00 c0       	rjmp	.+0      	; 0x79c <door_open_close+0x42>
	_delay_ms(1000);
	LCD_top("Choose the floor");
     79c:	00 00       	nop
     79e:	8c ee       	ldi	r24, 0xEC	; 236
     7a0:	92 e0       	ldi	r25, 0x02	; 2
     7a2:	ce cf       	rjmp	.-100    	; 0x740 <LCD_top>
     7a4:	08 95       	ret

000007a6 <setup>:
}

void setup(){
	// Initialize LCD
	lcd_init(LCD_DISP_ON);
     7a6:	8c e0       	ldi	r24, 0x0C	; 12
     7a8:	b5 de       	rcall	.-662    	; 0x514 <lcd_init>
	lcd_clrscr();
     7aa:	91 de       	rcall	.-734    	; 0x4ce <lcd_clrscr>
     7ac:	8c ee       	ldi	r24, 0xEC	; 236
	LCD_top("Choose the floor");
     7ae:	92 e0       	ldi	r25, 0x02	; 2
     7b0:	c7 df       	rcall	.-114    	; 0x740 <LCD_top>
     7b2:	2f ef       	ldi	r18, 0xFF	; 255
     7b4:	89 ef       	ldi	r24, 0xF9	; 249
     7b6:	90 e0       	ldi	r25, 0x00	; 0
     7b8:	21 50       	subi	r18, 0x01	; 1
     7ba:	80 40       	sbci	r24, 0x00	; 0
     7bc:	90 40       	sbci	r25, 0x00	; 0
     7be:	e1 f7       	brne	.-8      	; 0x7b8 <setup+0x12>
     7c0:	00 c0       	rjmp	.+0      	; 0x7c2 <setup+0x1c>
     7c2:	00 00       	nop
	_delay_ms(20);
	// Initialize UART for debugging
	UART_init();
     7c4:	00 df       	rcall	.-512    	; 0x5c6 <UART_init>
     7c6:	2f ef       	ldi	r18, 0xFF	; 255
     7c8:	89 ef       	ldi	r24, 0xF9	; 249
     7ca:	90 e0       	ldi	r25, 0x00	; 0
     7cc:	21 50       	subi	r18, 0x01	; 1
     7ce:	80 40       	sbci	r24, 0x00	; 0
     7d0:	90 40       	sbci	r25, 0x00	; 0
     7d2:	e1 f7       	brne	.-8      	; 0x7cc <setup+0x26>
     7d4:	00 c0       	rjmp	.+0      	; 0x7d6 <setup+0x30>
     7d6:	00 00       	nop
	_delay_ms(20);
	UART_send_string("Elevator Master Program - NASA SERTIFIED PRODUCT\r\n");
     7d8:	8d ef       	ldi	r24, 0xFD	; 253
     7da:	92 e0       	ldi	r25, 0x02	; 2
     7dc:	07 df       	rcall	.-498    	; 0x5ec <UART_send_string>
     7de:	e3 de       	rcall	.-570    	; 0x5a6 <TWI_init>
	
	// Initialize TWI as master
	TWI_init();
     7e0:	2f ef       	ldi	r18, 0xFF	; 255
     7e2:	89 ef       	ldi	r24, 0xF9	; 249
     7e4:	90 e0       	ldi	r25, 0x00	; 0
     7e6:	21 50       	subi	r18, 0x01	; 1
     7e8:	80 40       	sbci	r24, 0x00	; 0
     7ea:	90 40       	sbci	r25, 0x00	; 0
     7ec:	e1 f7       	brne	.-8      	; 0x7e6 <setup+0x40>
     7ee:	00 c0       	rjmp	.+0      	; 0x7f0 <setup+0x4a>
     7f0:	00 00       	nop
     7f2:	28 dd       	rcall	.-1456   	; 0x244 <KEYPAD_Init>
	_delay_ms(20);    
	// Init keypad
	KEYPAD_Init();
     7f4:	2f ef       	ldi	r18, 0xFF	; 255
     7f6:	89 ef       	ldi	r24, 0xF9	; 249
     7f8:	90 e0       	ldi	r25, 0x00	; 0
     7fa:	21 50       	subi	r18, 0x01	; 1
     7fc:	80 40       	sbci	r24, 0x00	; 0
     7fe:	90 40       	sbci	r25, 0x00	; 0
     800:	e1 f7       	brne	.-8      	; 0x7fa <setup+0x54>
     802:	00 c0       	rjmp	.+0      	; 0x804 <setup+0x5e>
     804:	00 00       	nop
     806:	08 95       	ret

00000808 <LCD_bottom>:
     808:	0f 93       	push	r16
     80a:	1f 93       	push	r17
	clear_LCD_line(0);
	lcd_puts(msg);
}

// LCD display bottom row updates when elevator floor changes
void LCD_bottom(int floor){
     80c:	cf 93       	push	r28
     80e:	df 93       	push	r29
     810:	cd b7       	in	r28, 0x3d	; 61
     812:	de b7       	in	r29, 0x3e	; 62
     814:	64 97       	sbiw	r28, 0x14	; 20
     816:	0f b6       	in	r0, 0x3f	; 63
     818:	f8 94       	cli
     81a:	de bf       	out	0x3e, r29	; 62
     81c:	0f be       	out	0x3f, r0	; 63
     81e:	cd bf       	out	0x3d, r28	; 61
	char str[20];
	sprintf(str, "Current floor: %d", floor);
     820:	9f 93       	push	r25
     822:	8f 93       	push	r24
     824:	80 e3       	ldi	r24, 0x30	; 48
     826:	93 e0       	ldi	r25, 0x03	; 3
     828:	9f 93       	push	r25
     82a:	8f 93       	push	r24
     82c:	8e 01       	movw	r16, r28
     82e:	0f 5f       	subi	r16, 0xFF	; 255
     830:	1f 4f       	sbci	r17, 0xFF	; 255
     832:	1f 93       	push	r17
     834:	0f 93       	push	r16
     836:	75 d1       	rcall	.+746    	; 0xb22 <sprintf>
	lcd_gotoxy(0,1);
     838:	61 e0       	ldi	r22, 0x01	; 1
     83a:	80 e0       	ldi	r24, 0x00	; 0
     83c:	40 de       	rcall	.-896    	; 0x4be <lcd_gotoxy>
	clear_LCD_line(1);
     83e:	81 e0       	ldi	r24, 0x01	; 1
     840:	6c df       	rcall	.-296    	; 0x71a <clear_LCD_line>
	lcd_puts(str);
     842:	c8 01       	movw	r24, r16
     844:	59 de       	rcall	.-846    	; 0x4f8 <lcd_puts>
     846:	0f 90       	pop	r0
}
     848:	0f 90       	pop	r0
     84a:	0f 90       	pop	r0
     84c:	0f 90       	pop	r0
     84e:	0f 90       	pop	r0
     850:	0f 90       	pop	r0
     852:	64 96       	adiw	r28, 0x14	; 20
     854:	0f b6       	in	r0, 0x3f	; 63
     856:	f8 94       	cli
     858:	de bf       	out	0x3e, r29	; 62
     85a:	0f be       	out	0x3f, r0	; 63
     85c:	cd bf       	out	0x3d, r28	; 61
     85e:	df 91       	pop	r29
     860:	cf 91       	pop	r28
     862:	1f 91       	pop	r17
     864:	0f 91       	pop	r16
     866:	08 95       	ret

00000868 <main>:
     868:	cf 93       	push	r28

char key_str[4];
char* ptr;


int main(void) {
     86a:	df 93       	push	r29
     86c:	cd b7       	in	r28, 0x3d	; 61
     86e:	de b7       	in	r29, 0x3e	; 62
     870:	64 97       	sbiw	r28, 0x14	; 20
     872:	0f b6       	in	r0, 0x3f	; 63
     874:	f8 94       	cli
     876:	de bf       	out	0x3e, r29	; 62
     878:	0f be       	out	0x3f, r0	; 63
     87a:	cd bf       	out	0x3d, r28	; 61
	
	setup();
     87c:	94 df       	rcall	.-216    	; 0x7a6 <setup>
	// char *str_ptr;        // Luodaan apumuuttuja pointerille stringiin.
	// str_ptr = str;
	
    while (1) {
  	
		uint8_t key_input = KEYPAD_GetKey();
     87e:	14 dd       	rcall	.-1496   	; 0x2a8 <KEYPAD_GetKey>
     880:	88 23       	and	r24, r24
		
		// Tallennetaan	kaapattu keypad painallus int ja str pointer muodossa	
		if(key_input != 0){ // Jos painiketta on painettu (ei ole 0)
     882:	e9 f3       	breq	.-6      	; 0x87e <main+0x16>
     884:	10 ed       	ldi	r17, 0xD0	; 208

			key_input = key_input - '0';
     886:	18 0f       	add	r17, r24
     888:	e1 2e       	mov	r14, r17
			itoa(key_input, str, 20);
     88a:	f1 2c       	mov	r15, r1
     88c:	44 e1       	ldi	r20, 0x14	; 20
    } else if (__radix < 2 || __radix > 36) {
	*__s = 0;
	return __s;
    } else {
	extern char *__itoa_ncheck (int, char *, unsigned char);
	return __itoa_ncheck (__val, __s, __radix);
     88e:	be 01       	movw	r22, r28
     890:	6f 5f       	subi	r22, 0xFF	; 255
     892:	7f 4f       	sbci	r23, 0xFF	; 255
     894:	c7 01       	movw	r24, r14
     896:	22 d1       	rcall	.+580    	; 0xadc <__itoa_ncheck>
     898:	82 e4       	ldi	r24, 0x42	; 66
			UART_send_string("Pressed key: ");
     89a:	93 e0       	ldi	r25, 0x03	; 3
     89c:	a7 de       	rcall	.-690    	; 0x5ec <UART_send_string>
     89e:	ce 01       	movw	r24, r28
			UART_send_string(str);
     8a0:	01 96       	adiw	r24, 0x01	; 1
     8a2:	a4 de       	rcall	.-696    	; 0x5ec <UART_send_string>
     8a4:	8a ed       	ldi	r24, 0xDA	; 218
			UART_send_string ("\r\n");
     8a6:	92 e0       	ldi	r25, 0x02	; 2
     8a8:	a1 de       	rcall	.-702    	; 0x5ec <UART_send_string>
     8aa:	80 91 d2 03 	lds	r24, 0x03D2	; 0x8003d2 <current_floor>
			
		} else continue;
		
		// Define next state
		if(current_floor < key_input)	{ current_state = 1; }
     8ae:	81 17       	cp	r24, r17
     8b0:	18 f4       	brcc	.+6      	; 0x8b8 <main+0x50>
     8b2:	81 e0       	ldi	r24, 0x01	; 1
     8b4:	80 93 d1 03 	sts	0x03D1, r24	; 0x8003d1 <current_state>
     8b8:	80 91 d2 03 	lds	r24, 0x03D2	; 0x8003d2 <current_floor>
		if(current_floor == key_input)	{ current_state = 2; }
     8bc:	18 13       	cpse	r17, r24
     8be:	03 c0       	rjmp	.+6      	; 0x8c6 <main+0x5e>
     8c0:	82 e0       	ldi	r24, 0x02	; 2
     8c2:	80 93 d1 03 	sts	0x03D1, r24	; 0x8003d1 <current_state>
     8c6:	80 91 d2 03 	lds	r24, 0x03D2	; 0x8003d2 <current_floor>
		if(current_floor > key_input)	{ current_state = 3; }
     8ca:	18 17       	cp	r17, r24
     8cc:	18 f4       	brcc	.+6      	; 0x8d4 <main+0x6c>
     8ce:	83 e0       	ldi	r24, 0x03	; 3
     8d0:	80 93 d1 03 	sts	0x03D1, r24	; 0x8003d1 <current_state>
     8d4:	80 91 d2 03 	lds	r24, 0x03D2	; 0x8003d2 <current_floor>
		
		floors_to_travel = abs(current_floor - key_input);
     8d8:	90 e0       	ldi	r25, 0x00	; 0
     8da:	8e 19       	sub	r24, r14
     8dc:	9f 09       	sbc	r25, r15
     8de:	9c 01       	movw	r18, r24
     8e0:	22 f4       	brpl	.+8      	; 0x8ea <main+0x82>
     8e2:	22 27       	eor	r18, r18
     8e4:	33 27       	eor	r19, r19
     8e6:	28 1b       	sub	r18, r24
     8e8:	39 0b       	sbc	r19, r25
     8ea:	20 93 d0 03 	sts	0x03D0, r18	; 0x8003d0 <__data_end>
     8ee:	80 e5       	ldi	r24, 0x50	; 80
		
		// Debug:
		
		UART_send_string("Current floor: ");
     8f0:	93 e0       	ldi	r25, 0x03	; 3
     8f2:	7c de       	rcall	.-776    	; 0x5ec <UART_send_string>
     8f4:	80 91 d2 03 	lds	r24, 0x03D2	; 0x8003d2 <current_floor>
		itoa(current_floor, str, 20);
     8f8:	44 e1       	ldi	r20, 0x14	; 20
     8fa:	be 01       	movw	r22, r28
     8fc:	6f 5f       	subi	r22, 0xFF	; 255
     8fe:	7f 4f       	sbci	r23, 0xFF	; 255
     900:	90 e0       	ldi	r25, 0x00	; 0
     902:	ec d0       	rcall	.+472    	; 0xadc <__itoa_ncheck>
		UART_send_string(str);
     904:	ce 01       	movw	r24, r28
     906:	01 96       	adiw	r24, 0x01	; 1
     908:	71 de       	rcall	.-798    	; 0x5ec <UART_send_string>
     90a:	80 e6       	ldi	r24, 0x60	; 96
		UART_send_string(", Floors to travel: ");
     90c:	93 e0       	ldi	r25, 0x03	; 3
     90e:	6e de       	rcall	.-804    	; 0x5ec <UART_send_string>
     910:	80 91 d0 03 	lds	r24, 0x03D0	; 0x8003d0 <__data_end>
     914:	44 e1       	ldi	r20, 0x14	; 20
     916:	be 01       	movw	r22, r28
     918:	6f 5f       	subi	r22, 0xFF	; 255
     91a:	7f 4f       	sbci	r23, 0xFF	; 255
     91c:	90 e0       	ldi	r25, 0x00	; 0
     91e:	de d0       	rcall	.+444    	; 0xadc <__itoa_ncheck>
		itoa(floors_to_travel, str, 20);
		UART_send_string(str);
     920:	ce 01       	movw	r24, r28
     922:	01 96       	adiw	r24, 0x01	; 1
     924:	63 de       	rcall	.-826    	; 0x5ec <UART_send_string>
     926:	8a ed       	ldi	r24, 0xDA	; 218
		UART_send_string("\r\n");
     928:	92 e0       	ldi	r25, 0x02	; 2
     92a:	60 de       	rcall	.-832    	; 0x5ec <UART_send_string>
     92c:	80 91 d1 03 	lds	r24, 0x03D1	; 0x8003d1 <current_state>
		
		switch(current_state){
     930:	82 30       	cpi	r24, 0x02	; 2
     932:	09 f4       	brne	.+2      	; 0x936 <main+0xce>
     934:	52 c0       	rjmp	.+164    	; 0x9da <main+0x172>
     936:	83 30       	cpi	r24, 0x03	; 3
     938:	09 f4       	brne	.+2      	; 0x93c <main+0xd4>
     93a:	76 c0       	rjmp	.+236    	; 0xa28 <main+0x1c0>
     93c:	81 30       	cpi	r24, 0x01	; 1
     93e:	09 f0       	breq	.+2      	; 0x942 <main+0xda>
     940:	be c0       	rjmp	.+380    	; 0xabe <main+0x256>
     942:	2f ef       	ldi	r18, 0xFF	; 255
     944:	89 ef       	ldi	r24, 0xF9	; 249
     946:	90 e0       	ldi	r25, 0x00	; 0
     948:	21 50       	subi	r18, 0x01	; 1
     94a:	80 40       	sbci	r24, 0x00	; 0
     94c:	90 40       	sbci	r25, 0x00	; 0
     94e:	e1 f7       	brne	.-8      	; 0x948 <main+0xe0>
     950:	00 c0       	rjmp	.+0      	; 0x952 <main+0xea>
			case 1: // GO UP
			
				_delay_ms(20);  // Debounce
    
				UART_send_string("Going up!\r\n");
     952:	00 00       	nop
     954:	85 e7       	ldi	r24, 0x75	; 117
     956:	93 e0       	ldi	r25, 0x03	; 3
     958:	49 de       	rcall	.-878    	; 0x5ec <UART_send_string>
				send_command('M');
     95a:	8d e4       	ldi	r24, 0x4D	; 77
     95c:	a2 de       	rcall	.-700    	; 0x6a2 <send_command>
				LCD_top("Going up");
     95e:	81 e8       	ldi	r24, 0x81	; 129
     960:	93 e0       	ldi	r25, 0x03	; 3
     962:	ee de       	rcall	.-548    	; 0x740 <LCD_top>
     964:	00 e0       	ldi	r16, 0x00	; 0
				
				for(int i = 0; i < floors_to_travel; i++){
     966:	10 e0       	ldi	r17, 0x00	; 0
     968:	25 c0       	rjmp	.+74     	; 0x9b4 <main+0x14c>
					current_floor++;					
     96a:	80 91 d2 03 	lds	r24, 0x03D2	; 0x8003d2 <current_floor>
     96e:	8f 5f       	subi	r24, 0xFF	; 255
     970:	80 93 d2 03 	sts	0x03D2, r24	; 0x8003d2 <current_floor>
					UART_send_string("Moving to floor: ");
     974:	8a e8       	ldi	r24, 0x8A	; 138
     976:	93 e0       	ldi	r25, 0x03	; 3
					itoa(current_floor, str, 10);
     978:	39 de       	rcall	.-910    	; 0x5ec <UART_send_string>
     97a:	80 91 d2 03 	lds	r24, 0x03D2	; 0x8003d2 <current_floor>
     97e:	4a e0       	ldi	r20, 0x0A	; 10
     980:	be 01       	movw	r22, r28
     982:	6f 5f       	subi	r22, 0xFF	; 255
     984:	7f 4f       	sbci	r23, 0xFF	; 255
     986:	90 e0       	ldi	r25, 0x00	; 0
					UART_send_string(str);
     988:	a9 d0       	rcall	.+338    	; 0xadc <__itoa_ncheck>
     98a:	ce 01       	movw	r24, r28
     98c:	01 96       	adiw	r24, 0x01	; 1
     98e:	2e de       	rcall	.-932    	; 0x5ec <UART_send_string>
					UART_send_string("\r\n");
     990:	8a ed       	ldi	r24, 0xDA	; 218
     992:	92 e0       	ldi	r25, 0x02	; 2
     994:	2b de       	rcall	.-938    	; 0x5ec <UART_send_string>
     996:	80 91 d2 03 	lds	r24, 0x03D2	; 0x8003d2 <current_floor>
					LCD_bottom(current_floor); // Update LCD as elevator moves
     99a:	90 e0       	ldi	r25, 0x00	; 0
     99c:	35 df       	rcall	.-406    	; 0x808 <LCD_bottom>
     99e:	2f ef       	ldi	r18, 0xFF	; 255
     9a0:	89 e6       	ldi	r24, 0x69	; 105
     9a2:	98 e1       	ldi	r25, 0x18	; 24
     9a4:	21 50       	subi	r18, 0x01	; 1
     9a6:	80 40       	sbci	r24, 0x00	; 0
     9a8:	90 40       	sbci	r25, 0x00	; 0
     9aa:	e1 f7       	brne	.-8      	; 0x9a4 <main+0x13c>
     9ac:	00 c0       	rjmp	.+0      	; 0x9ae <main+0x146>
     9ae:	00 00       	nop
    
				UART_send_string("Going up!\r\n");
				send_command('M');
				LCD_top("Going up");
				
				for(int i = 0; i < floors_to_travel; i++){
     9b0:	0f 5f       	subi	r16, 0xFF	; 255
     9b2:	1f 4f       	sbci	r17, 0xFF	; 255
     9b4:	80 91 d0 03 	lds	r24, 0x03D0	; 0x8003d0 <__data_end>
     9b8:	90 e0       	ldi	r25, 0x00	; 0
     9ba:	08 17       	cp	r16, r24
     9bc:	19 07       	cpc	r17, r25
     9be:	ac f2       	brlt	.-86     	; 0x96a <main+0x102>
					UART_send_string(str);
					UART_send_string("\r\n");
					LCD_bottom(current_floor); // Update LCD as elevator moves
					_delay_ms(500); // ELEVATOR MOVEMENT SPEED
				}
				send_command('S');
     9c0:	83 e5       	ldi	r24, 0x53	; 83
     9c2:	6f de       	rcall	.-802    	; 0x6a2 <send_command>
     9c4:	ca de       	rcall	.-620    	; 0x75a <door_open_close>
				
				// Door open-close sequence
				door_open_close();
     9c6:	2f ef       	ldi	r18, 0xFF	; 255
     9c8:	83 ec       	ldi	r24, 0xC3	; 195
     9ca:	99 e0       	ldi	r25, 0x09	; 9
     9cc:	21 50       	subi	r18, 0x01	; 1
     9ce:	80 40       	sbci	r24, 0x00	; 0
     9d0:	90 40       	sbci	r25, 0x00	; 0
     9d2:	e1 f7       	brne	.-8      	; 0x9cc <main+0x164>
     9d4:	00 c0       	rjmp	.+0      	; 0x9d6 <main+0x16e>
     9d6:	00 00       	nop
     9d8:	72 c0       	rjmp	.+228    	; 0xabe <main+0x256>
     9da:	2f ef       	ldi	r18, 0xFF	; 255
     9dc:	89 ef       	ldi	r24, 0xF9	; 249
     9de:	90 e0       	ldi	r25, 0x00	; 0
     9e0:	21 50       	subi	r18, 0x01	; 1
     9e2:	80 40       	sbci	r24, 0x00	; 0
     9e4:	90 40       	sbci	r25, 0x00	; 0
     9e6:	e1 f7       	brne	.-8      	; 0x9e0 <main+0x178>
			
			case 2: // SAME FLOOR -> Fault state
			
				_delay_ms(20);  // Debounce
			
				UART_send_string("Fault state.\r\n");
     9e8:	00 c0       	rjmp	.+0      	; 0x9ea <main+0x182>
     9ea:	00 00       	nop
     9ec:	8c e9       	ldi	r24, 0x9C	; 156
     9ee:	93 e0       	ldi	r25, 0x03	; 3
				LCD_top("Same Floor");
     9f0:	fd dd       	rcall	.-1030   	; 0x5ec <UART_send_string>
     9f2:	8b ea       	ldi	r24, 0xAB	; 171
     9f4:	93 e0       	ldi	r25, 0x03	; 3
     9f6:	a4 de       	rcall	.-696    	; 0x740 <LCD_top>
				send_command('F'); // Fault state, blink movement led 3 times
     9f8:	86 e4       	ldi	r24, 0x46	; 70
     9fa:	53 de       	rcall	.-858    	; 0x6a2 <send_command>
     9fc:	2f ef       	ldi	r18, 0xFF	; 255
     9fe:	87 e9       	ldi	r24, 0x97	; 151
     a00:	9a e3       	ldi	r25, 0x3A	; 58
     a02:	21 50       	subi	r18, 0x01	; 1
     a04:	80 40       	sbci	r24, 0x00	; 0
     a06:	90 40       	sbci	r25, 0x00	; 0
     a08:	e1 f7       	brne	.-8      	; 0xa02 <main+0x19a>
     a0a:	00 c0       	rjmp	.+0      	; 0xa0c <main+0x1a4>
     a0c:	00 00       	nop
				_delay_ms(1200);
				LCD_top("Choose the floor");
     a0e:	8c ee       	ldi	r24, 0xEC	; 236
     a10:	92 e0       	ldi	r25, 0x02	; 2
     a12:	96 de       	rcall	.-724    	; 0x740 <LCD_top>
     a14:	2f ef       	ldi	r18, 0xFF	; 255
     a16:	83 ec       	ldi	r24, 0xC3	; 195
     a18:	99 e0       	ldi	r25, 0x09	; 9
     a1a:	21 50       	subi	r18, 0x01	; 1
     a1c:	80 40       	sbci	r24, 0x00	; 0
     a1e:	90 40       	sbci	r25, 0x00	; 0
     a20:	e1 f7       	brne	.-8      	; 0xa1a <main+0x1b2>
     a22:	00 c0       	rjmp	.+0      	; 0xa24 <main+0x1bc>
     a24:	00 00       	nop
     a26:	4b c0       	rjmp	.+150    	; 0xabe <main+0x256>
     a28:	2f ef       	ldi	r18, 0xFF	; 255
     a2a:	89 ef       	ldi	r24, 0xF9	; 249
     a2c:	90 e0       	ldi	r25, 0x00	; 0
     a2e:	21 50       	subi	r18, 0x01	; 1
     a30:	80 40       	sbci	r24, 0x00	; 0
     a32:	90 40       	sbci	r25, 0x00	; 0
     a34:	e1 f7       	brne	.-8      	; 0xa2e <main+0x1c6>
     a36:	00 c0       	rjmp	.+0      	; 0xa38 <main+0x1d0>
				break;
				
			case 3: // GO DOWN
			
	            _delay_ms(20);  // Debounce
	            UART_send_string("Going down!\r\n");
     a38:	00 00       	nop
     a3a:	86 eb       	ldi	r24, 0xB6	; 182
     a3c:	93 e0       	ldi	r25, 0x03	; 3
				send_command('M');
     a3e:	d6 dd       	rcall	.-1108   	; 0x5ec <UART_send_string>
     a40:	8d e4       	ldi	r24, 0x4D	; 77
				LCD_top("Going down");
     a42:	2f de       	rcall	.-930    	; 0x6a2 <send_command>
     a44:	84 ec       	ldi	r24, 0xC4	; 196
     a46:	93 e0       	ldi	r25, 0x03	; 3
				for(int i = 0; i < floors_to_travel; i++){
     a48:	7b de       	rcall	.-778    	; 0x740 <LCD_top>
     a4a:	00 e0       	ldi	r16, 0x00	; 0
     a4c:	10 e0       	ldi	r17, 0x00	; 0
					current_floor--;
     a4e:	25 c0       	rjmp	.+74     	; 0xa9a <main+0x232>
     a50:	80 91 d2 03 	lds	r24, 0x03D2	; 0x8003d2 <current_floor>
     a54:	81 50       	subi	r24, 0x01	; 1
     a56:	80 93 d2 03 	sts	0x03D2, r24	; 0x8003d2 <current_floor>
					UART_send_string("Moving to floor: ");
     a5a:	8a e8       	ldi	r24, 0x8A	; 138
     a5c:	93 e0       	ldi	r25, 0x03	; 3
     a5e:	c6 dd       	rcall	.-1140   	; 0x5ec <UART_send_string>
					itoa(current_floor, str, 10);
     a60:	80 91 d2 03 	lds	r24, 0x03D2	; 0x8003d2 <current_floor>
     a64:	4a e0       	ldi	r20, 0x0A	; 10
     a66:	be 01       	movw	r22, r28
     a68:	6f 5f       	subi	r22, 0xFF	; 255
     a6a:	7f 4f       	sbci	r23, 0xFF	; 255
     a6c:	90 e0       	ldi	r25, 0x00	; 0
					UART_send_string(str);
     a6e:	36 d0       	rcall	.+108    	; 0xadc <__itoa_ncheck>
     a70:	ce 01       	movw	r24, r28
     a72:	01 96       	adiw	r24, 0x01	; 1
     a74:	bb dd       	rcall	.-1162   	; 0x5ec <UART_send_string>
					UART_send_string("\r\n");
     a76:	8a ed       	ldi	r24, 0xDA	; 218
     a78:	92 e0       	ldi	r25, 0x02	; 2
     a7a:	b8 dd       	rcall	.-1168   	; 0x5ec <UART_send_string>
     a7c:	80 91 d2 03 	lds	r24, 0x03D2	; 0x8003d2 <current_floor>
					LCD_bottom(current_floor); // Update LCD as elevator moves
     a80:	90 e0       	ldi	r25, 0x00	; 0
     a82:	c2 de       	rcall	.-636    	; 0x808 <LCD_bottom>
     a84:	2f ef       	ldi	r18, 0xFF	; 255
     a86:	89 e6       	ldi	r24, 0x69	; 105
     a88:	98 e1       	ldi	r25, 0x18	; 24
     a8a:	21 50       	subi	r18, 0x01	; 1
     a8c:	80 40       	sbci	r24, 0x00	; 0
     a8e:	90 40       	sbci	r25, 0x00	; 0
     a90:	e1 f7       	brne	.-8      	; 0xa8a <main+0x222>
     a92:	00 c0       	rjmp	.+0      	; 0xa94 <main+0x22c>
     a94:	00 00       	nop
     a96:	0f 5f       	subi	r16, 0xFF	; 255
     a98:	1f 4f       	sbci	r17, 0xFF	; 255
			
	            _delay_ms(20);  // Debounce
	            UART_send_string("Going down!\r\n");
				send_command('M');
				LCD_top("Going down");
				for(int i = 0; i < floors_to_travel; i++){
     a9a:	80 91 d0 03 	lds	r24, 0x03D0	; 0x8003d0 <__data_end>
     a9e:	90 e0       	ldi	r25, 0x00	; 0
     aa0:	08 17       	cp	r16, r24
     aa2:	19 07       	cpc	r17, r25
     aa4:	ac f2       	brlt	.-86     	; 0xa50 <main+0x1e8>
     aa6:	83 e5       	ldi	r24, 0x53	; 83
     aa8:	fc dd       	rcall	.-1032   	; 0x6a2 <send_command>
					UART_send_string("\r\n");
					LCD_bottom(current_floor); // Update LCD as elevator moves
					_delay_ms(500); // ELEVATOR MOVEMENT SPEED
				}
				
				send_command('S');
     aaa:	57 de       	rcall	.-850    	; 0x75a <door_open_close>
     aac:	2f ef       	ldi	r18, 0xFF	; 255
     aae:	83 ec       	ldi	r24, 0xC3	; 195
				
				// Door open-close sequence
				door_open_close();
     ab0:	99 e0       	ldi	r25, 0x09	; 9
     ab2:	21 50       	subi	r18, 0x01	; 1
     ab4:	80 40       	sbci	r24, 0x00	; 0
     ab6:	90 40       	sbci	r25, 0x00	; 0
     ab8:	e1 f7       	brne	.-8      	; 0xab2 <main+0x24a>
     aba:	00 c0       	rjmp	.+0      	; 0xabc <main+0x254>
     abc:	00 00       	nop
     abe:	8f e3       	ldi	r24, 0x3F	; 63
     ac0:	9c e9       	ldi	r25, 0x9C	; 156
     ac2:	01 97       	sbiw	r24, 0x01	; 1
     ac4:	f1 f7       	brne	.-4      	; 0xac2 <main+0x25a>
     ac6:	00 c0       	rjmp	.+0      	; 0xac8 <main+0x260>
     ac8:	00 00       	nop
     aca:	d9 ce       	rjmp	.-590    	; 0x87e <main+0x16>

00000acc <__tablejump2__>:
     acc:	ee 0f       	add	r30, r30
     ace:	ff 1f       	adc	r31, r31
     ad0:	88 1f       	adc	r24, r24
     ad2:	8b bf       	out	0x3b, r24	; 59
     ad4:	07 90       	elpm	r0, Z+
     ad6:	f6 91       	elpm	r31, Z
     ad8:	e0 2d       	mov	r30, r0
     ada:	19 94       	eijmp

00000adc <__itoa_ncheck>:
     adc:	bb 27       	eor	r27, r27
     ade:	4a 30       	cpi	r20, 0x0A	; 10
     ae0:	31 f4       	brne	.+12     	; 0xaee <__itoa_ncheck+0x12>
     ae2:	99 23       	and	r25, r25
     ae4:	22 f4       	brpl	.+8      	; 0xaee <__itoa_ncheck+0x12>
     ae6:	bd e2       	ldi	r27, 0x2D	; 45
     ae8:	90 95       	com	r25
     aea:	81 95       	neg	r24
     aec:	9f 4f       	sbci	r25, 0xFF	; 255
     aee:	01 c0       	rjmp	.+2      	; 0xaf2 <__utoa_common>

00000af0 <__utoa_ncheck>:
     af0:	bb 27       	eor	r27, r27

00000af2 <__utoa_common>:
     af2:	fb 01       	movw	r30, r22
     af4:	55 27       	eor	r21, r21
     af6:	aa 27       	eor	r26, r26
     af8:	88 0f       	add	r24, r24
     afa:	99 1f       	adc	r25, r25
     afc:	aa 1f       	adc	r26, r26
     afe:	a4 17       	cp	r26, r20
     b00:	10 f0       	brcs	.+4      	; 0xb06 <__utoa_common+0x14>
     b02:	a4 1b       	sub	r26, r20
     b04:	83 95       	inc	r24
     b06:	50 51       	subi	r21, 0x10	; 16
     b08:	b9 f7       	brne	.-18     	; 0xaf8 <__utoa_common+0x6>
     b0a:	a0 5d       	subi	r26, 0xD0	; 208
     b0c:	aa 33       	cpi	r26, 0x3A	; 58
     b0e:	08 f0       	brcs	.+2      	; 0xb12 <__utoa_common+0x20>
     b10:	a9 5d       	subi	r26, 0xD9	; 217
     b12:	a1 93       	st	Z+, r26
     b14:	00 97       	sbiw	r24, 0x00	; 0
     b16:	79 f7       	brne	.-34     	; 0xaf6 <__utoa_common+0x4>
     b18:	b1 11       	cpse	r27, r1
     b1a:	b1 93       	st	Z+, r27
     b1c:	11 92       	st	Z+, r1
     b1e:	cb 01       	movw	r24, r22
     b20:	41 c2       	rjmp	.+1154   	; 0xfa4 <strrev>

00000b22 <sprintf>:
     b22:	0f 93       	push	r16
     b24:	1f 93       	push	r17
     b26:	cf 93       	push	r28
     b28:	df 93       	push	r29
     b2a:	cd b7       	in	r28, 0x3d	; 61
     b2c:	de b7       	in	r29, 0x3e	; 62
     b2e:	2e 97       	sbiw	r28, 0x0e	; 14
     b30:	0f b6       	in	r0, 0x3f	; 63
     b32:	f8 94       	cli
     b34:	de bf       	out	0x3e, r29	; 62
     b36:	0f be       	out	0x3f, r0	; 63
     b38:	cd bf       	out	0x3d, r28	; 61
     b3a:	0e 89       	ldd	r16, Y+22	; 0x16
     b3c:	1f 89       	ldd	r17, Y+23	; 0x17
     b3e:	86 e0       	ldi	r24, 0x06	; 6
     b40:	8c 83       	std	Y+4, r24	; 0x04
     b42:	1a 83       	std	Y+2, r17	; 0x02
     b44:	09 83       	std	Y+1, r16	; 0x01
     b46:	8f ef       	ldi	r24, 0xFF	; 255
     b48:	9f e7       	ldi	r25, 0x7F	; 127
     b4a:	9e 83       	std	Y+6, r25	; 0x06
     b4c:	8d 83       	std	Y+5, r24	; 0x05
     b4e:	ae 01       	movw	r20, r28
     b50:	46 5e       	subi	r20, 0xE6	; 230
     b52:	5f 4f       	sbci	r21, 0xFF	; 255
     b54:	68 8d       	ldd	r22, Y+24	; 0x18
     b56:	79 8d       	ldd	r23, Y+25	; 0x19
     b58:	ce 01       	movw	r24, r28
     b5a:	01 96       	adiw	r24, 0x01	; 1
     b5c:	10 d0       	rcall	.+32     	; 0xb7e <vfprintf>
     b5e:	ef 81       	ldd	r30, Y+7	; 0x07
     b60:	f8 85       	ldd	r31, Y+8	; 0x08
     b62:	e0 0f       	add	r30, r16
     b64:	f1 1f       	adc	r31, r17
     b66:	10 82       	st	Z, r1
     b68:	2e 96       	adiw	r28, 0x0e	; 14
     b6a:	0f b6       	in	r0, 0x3f	; 63
     b6c:	f8 94       	cli
     b6e:	de bf       	out	0x3e, r29	; 62
     b70:	0f be       	out	0x3f, r0	; 63
     b72:	cd bf       	out	0x3d, r28	; 61
     b74:	df 91       	pop	r29
     b76:	cf 91       	pop	r28
     b78:	1f 91       	pop	r17
     b7a:	0f 91       	pop	r16
     b7c:	08 95       	ret

00000b7e <vfprintf>:
     b7e:	2f 92       	push	r2
     b80:	3f 92       	push	r3
     b82:	4f 92       	push	r4
     b84:	5f 92       	push	r5
     b86:	6f 92       	push	r6
     b88:	7f 92       	push	r7
     b8a:	8f 92       	push	r8
     b8c:	9f 92       	push	r9
     b8e:	af 92       	push	r10
     b90:	bf 92       	push	r11
     b92:	cf 92       	push	r12
     b94:	df 92       	push	r13
     b96:	ef 92       	push	r14
     b98:	ff 92       	push	r15
     b9a:	0f 93       	push	r16
     b9c:	1f 93       	push	r17
     b9e:	cf 93       	push	r28
     ba0:	df 93       	push	r29
     ba2:	cd b7       	in	r28, 0x3d	; 61
     ba4:	de b7       	in	r29, 0x3e	; 62
     ba6:	2b 97       	sbiw	r28, 0x0b	; 11
     ba8:	0f b6       	in	r0, 0x3f	; 63
     baa:	f8 94       	cli
     bac:	de bf       	out	0x3e, r29	; 62
     bae:	0f be       	out	0x3f, r0	; 63
     bb0:	cd bf       	out	0x3d, r28	; 61
     bb2:	6c 01       	movw	r12, r24
     bb4:	7b 01       	movw	r14, r22
     bb6:	8a 01       	movw	r16, r20
     bb8:	fc 01       	movw	r30, r24
     bba:	17 82       	std	Z+7, r1	; 0x07
     bbc:	16 82       	std	Z+6, r1	; 0x06
     bbe:	83 81       	ldd	r24, Z+3	; 0x03
     bc0:	81 ff       	sbrs	r24, 1
     bc2:	bf c1       	rjmp	.+894    	; 0xf42 <vfprintf+0x3c4>
     bc4:	ce 01       	movw	r24, r28
     bc6:	01 96       	adiw	r24, 0x01	; 1
     bc8:	3c 01       	movw	r6, r24
     bca:	f6 01       	movw	r30, r12
     bcc:	93 81       	ldd	r25, Z+3	; 0x03
     bce:	f7 01       	movw	r30, r14
     bd0:	93 fd       	sbrc	r25, 3
     bd2:	85 91       	lpm	r24, Z+
     bd4:	93 ff       	sbrs	r25, 3
     bd6:	81 91       	ld	r24, Z+
     bd8:	7f 01       	movw	r14, r30
     bda:	88 23       	and	r24, r24
     bdc:	09 f4       	brne	.+2      	; 0xbe0 <vfprintf+0x62>
     bde:	ad c1       	rjmp	.+858    	; 0xf3a <vfprintf+0x3bc>
     be0:	85 32       	cpi	r24, 0x25	; 37
     be2:	39 f4       	brne	.+14     	; 0xbf2 <vfprintf+0x74>
     be4:	93 fd       	sbrc	r25, 3
     be6:	85 91       	lpm	r24, Z+
     be8:	93 ff       	sbrs	r25, 3
     bea:	81 91       	ld	r24, Z+
     bec:	7f 01       	movw	r14, r30
     bee:	85 32       	cpi	r24, 0x25	; 37
     bf0:	21 f4       	brne	.+8      	; 0xbfa <vfprintf+0x7c>
     bf2:	b6 01       	movw	r22, r12
     bf4:	90 e0       	ldi	r25, 0x00	; 0
     bf6:	e6 d1       	rcall	.+972    	; 0xfc4 <fputc>
     bf8:	e8 cf       	rjmp	.-48     	; 0xbca <vfprintf+0x4c>
     bfa:	91 2c       	mov	r9, r1
     bfc:	21 2c       	mov	r2, r1
     bfe:	31 2c       	mov	r3, r1
     c00:	ff e1       	ldi	r31, 0x1F	; 31
     c02:	f3 15       	cp	r31, r3
     c04:	d8 f0       	brcs	.+54     	; 0xc3c <vfprintf+0xbe>
     c06:	8b 32       	cpi	r24, 0x2B	; 43
     c08:	79 f0       	breq	.+30     	; 0xc28 <vfprintf+0xaa>
     c0a:	38 f4       	brcc	.+14     	; 0xc1a <vfprintf+0x9c>
     c0c:	80 32       	cpi	r24, 0x20	; 32
     c0e:	79 f0       	breq	.+30     	; 0xc2e <vfprintf+0xb0>
     c10:	83 32       	cpi	r24, 0x23	; 35
     c12:	a1 f4       	brne	.+40     	; 0xc3c <vfprintf+0xbe>
     c14:	23 2d       	mov	r18, r3
     c16:	20 61       	ori	r18, 0x10	; 16
     c18:	1d c0       	rjmp	.+58     	; 0xc54 <vfprintf+0xd6>
     c1a:	8d 32       	cpi	r24, 0x2D	; 45
     c1c:	61 f0       	breq	.+24     	; 0xc36 <vfprintf+0xb8>
     c1e:	80 33       	cpi	r24, 0x30	; 48
     c20:	69 f4       	brne	.+26     	; 0xc3c <vfprintf+0xbe>
     c22:	23 2d       	mov	r18, r3
     c24:	21 60       	ori	r18, 0x01	; 1
     c26:	16 c0       	rjmp	.+44     	; 0xc54 <vfprintf+0xd6>
     c28:	83 2d       	mov	r24, r3
     c2a:	82 60       	ori	r24, 0x02	; 2
     c2c:	38 2e       	mov	r3, r24
     c2e:	e3 2d       	mov	r30, r3
     c30:	e4 60       	ori	r30, 0x04	; 4
     c32:	3e 2e       	mov	r3, r30
     c34:	2a c0       	rjmp	.+84     	; 0xc8a <vfprintf+0x10c>
     c36:	f3 2d       	mov	r31, r3
     c38:	f8 60       	ori	r31, 0x08	; 8
     c3a:	1d c0       	rjmp	.+58     	; 0xc76 <vfprintf+0xf8>
     c3c:	37 fc       	sbrc	r3, 7
     c3e:	2d c0       	rjmp	.+90     	; 0xc9a <vfprintf+0x11c>
     c40:	20 ed       	ldi	r18, 0xD0	; 208
     c42:	28 0f       	add	r18, r24
     c44:	2a 30       	cpi	r18, 0x0A	; 10
     c46:	40 f0       	brcs	.+16     	; 0xc58 <vfprintf+0xda>
     c48:	8e 32       	cpi	r24, 0x2E	; 46
     c4a:	b9 f4       	brne	.+46     	; 0xc7a <vfprintf+0xfc>
     c4c:	36 fc       	sbrc	r3, 6
     c4e:	75 c1       	rjmp	.+746    	; 0xf3a <vfprintf+0x3bc>
     c50:	23 2d       	mov	r18, r3
     c52:	20 64       	ori	r18, 0x40	; 64
     c54:	32 2e       	mov	r3, r18
     c56:	19 c0       	rjmp	.+50     	; 0xc8a <vfprintf+0x10c>
     c58:	36 fe       	sbrs	r3, 6
     c5a:	06 c0       	rjmp	.+12     	; 0xc68 <vfprintf+0xea>
     c5c:	8a e0       	ldi	r24, 0x0A	; 10
     c5e:	98 9e       	mul	r9, r24
     c60:	20 0d       	add	r18, r0
     c62:	11 24       	eor	r1, r1
     c64:	92 2e       	mov	r9, r18
     c66:	11 c0       	rjmp	.+34     	; 0xc8a <vfprintf+0x10c>
     c68:	ea e0       	ldi	r30, 0x0A	; 10
     c6a:	2e 9e       	mul	r2, r30
     c6c:	20 0d       	add	r18, r0
     c6e:	11 24       	eor	r1, r1
     c70:	22 2e       	mov	r2, r18
     c72:	f3 2d       	mov	r31, r3
     c74:	f0 62       	ori	r31, 0x20	; 32
     c76:	3f 2e       	mov	r3, r31
     c78:	08 c0       	rjmp	.+16     	; 0xc8a <vfprintf+0x10c>
     c7a:	8c 36       	cpi	r24, 0x6C	; 108
     c7c:	21 f4       	brne	.+8      	; 0xc86 <vfprintf+0x108>
     c7e:	83 2d       	mov	r24, r3
     c80:	80 68       	ori	r24, 0x80	; 128
     c82:	38 2e       	mov	r3, r24
     c84:	02 c0       	rjmp	.+4      	; 0xc8a <vfprintf+0x10c>
     c86:	88 36       	cpi	r24, 0x68	; 104
     c88:	41 f4       	brne	.+16     	; 0xc9a <vfprintf+0x11c>
     c8a:	f7 01       	movw	r30, r14
     c8c:	93 fd       	sbrc	r25, 3
     c8e:	85 91       	lpm	r24, Z+
     c90:	93 ff       	sbrs	r25, 3
     c92:	81 91       	ld	r24, Z+
     c94:	7f 01       	movw	r14, r30
     c96:	81 11       	cpse	r24, r1
     c98:	b3 cf       	rjmp	.-154    	; 0xc00 <vfprintf+0x82>
     c9a:	98 2f       	mov	r25, r24
     c9c:	9f 7d       	andi	r25, 0xDF	; 223
     c9e:	95 54       	subi	r25, 0x45	; 69
     ca0:	93 30       	cpi	r25, 0x03	; 3
     ca2:	28 f4       	brcc	.+10     	; 0xcae <vfprintf+0x130>
     ca4:	0c 5f       	subi	r16, 0xFC	; 252
     ca6:	1f 4f       	sbci	r17, 0xFF	; 255
     ca8:	9f e3       	ldi	r25, 0x3F	; 63
     caa:	99 83       	std	Y+1, r25	; 0x01
     cac:	0d c0       	rjmp	.+26     	; 0xcc8 <vfprintf+0x14a>
     cae:	83 36       	cpi	r24, 0x63	; 99
     cb0:	31 f0       	breq	.+12     	; 0xcbe <vfprintf+0x140>
     cb2:	83 37       	cpi	r24, 0x73	; 115
     cb4:	71 f0       	breq	.+28     	; 0xcd2 <vfprintf+0x154>
     cb6:	83 35       	cpi	r24, 0x53	; 83
     cb8:	09 f0       	breq	.+2      	; 0xcbc <vfprintf+0x13e>
     cba:	55 c0       	rjmp	.+170    	; 0xd66 <vfprintf+0x1e8>
     cbc:	20 c0       	rjmp	.+64     	; 0xcfe <vfprintf+0x180>
     cbe:	f8 01       	movw	r30, r16
     cc0:	80 81       	ld	r24, Z
     cc2:	89 83       	std	Y+1, r24	; 0x01
     cc4:	0e 5f       	subi	r16, 0xFE	; 254
     cc6:	1f 4f       	sbci	r17, 0xFF	; 255
     cc8:	88 24       	eor	r8, r8
     cca:	83 94       	inc	r8
     ccc:	91 2c       	mov	r9, r1
     cce:	53 01       	movw	r10, r6
     cd0:	12 c0       	rjmp	.+36     	; 0xcf6 <vfprintf+0x178>
     cd2:	28 01       	movw	r4, r16
     cd4:	f2 e0       	ldi	r31, 0x02	; 2
     cd6:	4f 0e       	add	r4, r31
     cd8:	51 1c       	adc	r5, r1
     cda:	f8 01       	movw	r30, r16
     cdc:	a0 80       	ld	r10, Z
     cde:	b1 80       	ldd	r11, Z+1	; 0x01
     ce0:	36 fe       	sbrs	r3, 6
     ce2:	03 c0       	rjmp	.+6      	; 0xcea <vfprintf+0x16c>
     ce4:	69 2d       	mov	r22, r9
     ce6:	70 e0       	ldi	r23, 0x00	; 0
     ce8:	02 c0       	rjmp	.+4      	; 0xcee <vfprintf+0x170>
     cea:	6f ef       	ldi	r22, 0xFF	; 255
     cec:	7f ef       	ldi	r23, 0xFF	; 255
     cee:	c5 01       	movw	r24, r10
     cf0:	4e d1       	rcall	.+668    	; 0xf8e <strnlen>
     cf2:	4c 01       	movw	r8, r24
     cf4:	82 01       	movw	r16, r4
     cf6:	f3 2d       	mov	r31, r3
     cf8:	ff 77       	andi	r31, 0x7F	; 127
     cfa:	3f 2e       	mov	r3, r31
     cfc:	15 c0       	rjmp	.+42     	; 0xd28 <vfprintf+0x1aa>
     cfe:	28 01       	movw	r4, r16
     d00:	22 e0       	ldi	r18, 0x02	; 2
     d02:	42 0e       	add	r4, r18
     d04:	51 1c       	adc	r5, r1
     d06:	f8 01       	movw	r30, r16
     d08:	a0 80       	ld	r10, Z
     d0a:	b1 80       	ldd	r11, Z+1	; 0x01
     d0c:	36 fe       	sbrs	r3, 6
     d0e:	03 c0       	rjmp	.+6      	; 0xd16 <vfprintf+0x198>
     d10:	69 2d       	mov	r22, r9
     d12:	70 e0       	ldi	r23, 0x00	; 0
     d14:	02 c0       	rjmp	.+4      	; 0xd1a <vfprintf+0x19c>
     d16:	6f ef       	ldi	r22, 0xFF	; 255
     d18:	7f ef       	ldi	r23, 0xFF	; 255
     d1a:	c5 01       	movw	r24, r10
     d1c:	2d d1       	rcall	.+602    	; 0xf78 <strnlen_P>
     d1e:	4c 01       	movw	r8, r24
     d20:	f3 2d       	mov	r31, r3
     d22:	f0 68       	ori	r31, 0x80	; 128
     d24:	3f 2e       	mov	r3, r31
     d26:	82 01       	movw	r16, r4
     d28:	33 fc       	sbrc	r3, 3
     d2a:	19 c0       	rjmp	.+50     	; 0xd5e <vfprintf+0x1e0>
     d2c:	82 2d       	mov	r24, r2
     d2e:	90 e0       	ldi	r25, 0x00	; 0
     d30:	88 16       	cp	r8, r24
     d32:	99 06       	cpc	r9, r25
     d34:	a0 f4       	brcc	.+40     	; 0xd5e <vfprintf+0x1e0>
     d36:	b6 01       	movw	r22, r12
     d38:	80 e2       	ldi	r24, 0x20	; 32
     d3a:	90 e0       	ldi	r25, 0x00	; 0
     d3c:	43 d1       	rcall	.+646    	; 0xfc4 <fputc>
     d3e:	2a 94       	dec	r2
     d40:	f5 cf       	rjmp	.-22     	; 0xd2c <vfprintf+0x1ae>
     d42:	f5 01       	movw	r30, r10
     d44:	37 fc       	sbrc	r3, 7
     d46:	85 91       	lpm	r24, Z+
     d48:	37 fe       	sbrs	r3, 7
     d4a:	81 91       	ld	r24, Z+
     d4c:	5f 01       	movw	r10, r30
     d4e:	b6 01       	movw	r22, r12
     d50:	90 e0       	ldi	r25, 0x00	; 0
     d52:	38 d1       	rcall	.+624    	; 0xfc4 <fputc>
     d54:	21 10       	cpse	r2, r1
     d56:	2a 94       	dec	r2
     d58:	21 e0       	ldi	r18, 0x01	; 1
     d5a:	82 1a       	sub	r8, r18
     d5c:	91 08       	sbc	r9, r1
     d5e:	81 14       	cp	r8, r1
     d60:	91 04       	cpc	r9, r1
     d62:	79 f7       	brne	.-34     	; 0xd42 <vfprintf+0x1c4>
     d64:	e1 c0       	rjmp	.+450    	; 0xf28 <vfprintf+0x3aa>
     d66:	84 36       	cpi	r24, 0x64	; 100
     d68:	11 f0       	breq	.+4      	; 0xd6e <vfprintf+0x1f0>
     d6a:	89 36       	cpi	r24, 0x69	; 105
     d6c:	39 f5       	brne	.+78     	; 0xdbc <vfprintf+0x23e>
     d6e:	f8 01       	movw	r30, r16
     d70:	37 fe       	sbrs	r3, 7
     d72:	07 c0       	rjmp	.+14     	; 0xd82 <vfprintf+0x204>
     d74:	60 81       	ld	r22, Z
     d76:	71 81       	ldd	r23, Z+1	; 0x01
     d78:	82 81       	ldd	r24, Z+2	; 0x02
     d7a:	93 81       	ldd	r25, Z+3	; 0x03
     d7c:	0c 5f       	subi	r16, 0xFC	; 252
     d7e:	1f 4f       	sbci	r17, 0xFF	; 255
     d80:	08 c0       	rjmp	.+16     	; 0xd92 <vfprintf+0x214>
     d82:	60 81       	ld	r22, Z
     d84:	71 81       	ldd	r23, Z+1	; 0x01
     d86:	07 2e       	mov	r0, r23
     d88:	00 0c       	add	r0, r0
     d8a:	88 0b       	sbc	r24, r24
     d8c:	99 0b       	sbc	r25, r25
     d8e:	0e 5f       	subi	r16, 0xFE	; 254
     d90:	1f 4f       	sbci	r17, 0xFF	; 255
     d92:	f3 2d       	mov	r31, r3
     d94:	ff 76       	andi	r31, 0x6F	; 111
     d96:	3f 2e       	mov	r3, r31
     d98:	97 ff       	sbrs	r25, 7
     d9a:	09 c0       	rjmp	.+18     	; 0xdae <vfprintf+0x230>
     d9c:	90 95       	com	r25
     d9e:	80 95       	com	r24
     da0:	70 95       	com	r23
     da2:	61 95       	neg	r22
     da4:	7f 4f       	sbci	r23, 0xFF	; 255
     da6:	8f 4f       	sbci	r24, 0xFF	; 255
     da8:	9f 4f       	sbci	r25, 0xFF	; 255
     daa:	f0 68       	ori	r31, 0x80	; 128
     dac:	3f 2e       	mov	r3, r31
     dae:	2a e0       	ldi	r18, 0x0A	; 10
     db0:	30 e0       	ldi	r19, 0x00	; 0
     db2:	a3 01       	movw	r20, r6
     db4:	43 d1       	rcall	.+646    	; 0x103c <__ultoa_invert>
     db6:	88 2e       	mov	r8, r24
     db8:	86 18       	sub	r8, r6
     dba:	44 c0       	rjmp	.+136    	; 0xe44 <vfprintf+0x2c6>
     dbc:	85 37       	cpi	r24, 0x75	; 117
     dbe:	31 f4       	brne	.+12     	; 0xdcc <vfprintf+0x24e>
     dc0:	23 2d       	mov	r18, r3
     dc2:	2f 7e       	andi	r18, 0xEF	; 239
     dc4:	b2 2e       	mov	r11, r18
     dc6:	2a e0       	ldi	r18, 0x0A	; 10
     dc8:	30 e0       	ldi	r19, 0x00	; 0
     dca:	25 c0       	rjmp	.+74     	; 0xe16 <vfprintf+0x298>
     dcc:	93 2d       	mov	r25, r3
     dce:	99 7f       	andi	r25, 0xF9	; 249
     dd0:	b9 2e       	mov	r11, r25
     dd2:	8f 36       	cpi	r24, 0x6F	; 111
     dd4:	c1 f0       	breq	.+48     	; 0xe06 <vfprintf+0x288>
     dd6:	18 f4       	brcc	.+6      	; 0xdde <vfprintf+0x260>
     dd8:	88 35       	cpi	r24, 0x58	; 88
     dda:	79 f0       	breq	.+30     	; 0xdfa <vfprintf+0x27c>
     ddc:	ae c0       	rjmp	.+348    	; 0xf3a <vfprintf+0x3bc>
     dde:	80 37       	cpi	r24, 0x70	; 112
     de0:	19 f0       	breq	.+6      	; 0xde8 <vfprintf+0x26a>
     de2:	88 37       	cpi	r24, 0x78	; 120
     de4:	21 f0       	breq	.+8      	; 0xdee <vfprintf+0x270>
     de6:	a9 c0       	rjmp	.+338    	; 0xf3a <vfprintf+0x3bc>
     de8:	e9 2f       	mov	r30, r25
     dea:	e0 61       	ori	r30, 0x10	; 16
     dec:	be 2e       	mov	r11, r30
     dee:	b4 fe       	sbrs	r11, 4
     df0:	0d c0       	rjmp	.+26     	; 0xe0c <vfprintf+0x28e>
     df2:	fb 2d       	mov	r31, r11
     df4:	f4 60       	ori	r31, 0x04	; 4
     df6:	bf 2e       	mov	r11, r31
     df8:	09 c0       	rjmp	.+18     	; 0xe0c <vfprintf+0x28e>
     dfa:	34 fe       	sbrs	r3, 4
     dfc:	0a c0       	rjmp	.+20     	; 0xe12 <vfprintf+0x294>
     dfe:	29 2f       	mov	r18, r25
     e00:	26 60       	ori	r18, 0x06	; 6
     e02:	b2 2e       	mov	r11, r18
     e04:	06 c0       	rjmp	.+12     	; 0xe12 <vfprintf+0x294>
     e06:	28 e0       	ldi	r18, 0x08	; 8
     e08:	30 e0       	ldi	r19, 0x00	; 0
     e0a:	05 c0       	rjmp	.+10     	; 0xe16 <vfprintf+0x298>
     e0c:	20 e1       	ldi	r18, 0x10	; 16
     e0e:	30 e0       	ldi	r19, 0x00	; 0
     e10:	02 c0       	rjmp	.+4      	; 0xe16 <vfprintf+0x298>
     e12:	20 e1       	ldi	r18, 0x10	; 16
     e14:	32 e0       	ldi	r19, 0x02	; 2
     e16:	f8 01       	movw	r30, r16
     e18:	b7 fe       	sbrs	r11, 7
     e1a:	07 c0       	rjmp	.+14     	; 0xe2a <vfprintf+0x2ac>
     e1c:	60 81       	ld	r22, Z
     e1e:	71 81       	ldd	r23, Z+1	; 0x01
     e20:	82 81       	ldd	r24, Z+2	; 0x02
     e22:	93 81       	ldd	r25, Z+3	; 0x03
     e24:	0c 5f       	subi	r16, 0xFC	; 252
     e26:	1f 4f       	sbci	r17, 0xFF	; 255
     e28:	06 c0       	rjmp	.+12     	; 0xe36 <vfprintf+0x2b8>
     e2a:	60 81       	ld	r22, Z
     e2c:	71 81       	ldd	r23, Z+1	; 0x01
     e2e:	80 e0       	ldi	r24, 0x00	; 0
     e30:	90 e0       	ldi	r25, 0x00	; 0
     e32:	0e 5f       	subi	r16, 0xFE	; 254
     e34:	1f 4f       	sbci	r17, 0xFF	; 255
     e36:	a3 01       	movw	r20, r6
     e38:	01 d1       	rcall	.+514    	; 0x103c <__ultoa_invert>
     e3a:	88 2e       	mov	r8, r24
     e3c:	86 18       	sub	r8, r6
     e3e:	fb 2d       	mov	r31, r11
     e40:	ff 77       	andi	r31, 0x7F	; 127
     e42:	3f 2e       	mov	r3, r31
     e44:	36 fe       	sbrs	r3, 6
     e46:	0d c0       	rjmp	.+26     	; 0xe62 <vfprintf+0x2e4>
     e48:	23 2d       	mov	r18, r3
     e4a:	2e 7f       	andi	r18, 0xFE	; 254
     e4c:	a2 2e       	mov	r10, r18
     e4e:	89 14       	cp	r8, r9
     e50:	58 f4       	brcc	.+22     	; 0xe68 <vfprintf+0x2ea>
     e52:	34 fe       	sbrs	r3, 4
     e54:	0b c0       	rjmp	.+22     	; 0xe6c <vfprintf+0x2ee>
     e56:	32 fc       	sbrc	r3, 2
     e58:	09 c0       	rjmp	.+18     	; 0xe6c <vfprintf+0x2ee>
     e5a:	83 2d       	mov	r24, r3
     e5c:	8e 7e       	andi	r24, 0xEE	; 238
     e5e:	a8 2e       	mov	r10, r24
     e60:	05 c0       	rjmp	.+10     	; 0xe6c <vfprintf+0x2ee>
     e62:	b8 2c       	mov	r11, r8
     e64:	a3 2c       	mov	r10, r3
     e66:	03 c0       	rjmp	.+6      	; 0xe6e <vfprintf+0x2f0>
     e68:	b8 2c       	mov	r11, r8
     e6a:	01 c0       	rjmp	.+2      	; 0xe6e <vfprintf+0x2f0>
     e6c:	b9 2c       	mov	r11, r9
     e6e:	a4 fe       	sbrs	r10, 4
     e70:	0f c0       	rjmp	.+30     	; 0xe90 <vfprintf+0x312>
     e72:	fe 01       	movw	r30, r28
     e74:	e8 0d       	add	r30, r8
     e76:	f1 1d       	adc	r31, r1
     e78:	80 81       	ld	r24, Z
     e7a:	80 33       	cpi	r24, 0x30	; 48
     e7c:	21 f4       	brne	.+8      	; 0xe86 <vfprintf+0x308>
     e7e:	9a 2d       	mov	r25, r10
     e80:	99 7e       	andi	r25, 0xE9	; 233
     e82:	a9 2e       	mov	r10, r25
     e84:	09 c0       	rjmp	.+18     	; 0xe98 <vfprintf+0x31a>
     e86:	a2 fe       	sbrs	r10, 2
     e88:	06 c0       	rjmp	.+12     	; 0xe96 <vfprintf+0x318>
     e8a:	b3 94       	inc	r11
     e8c:	b3 94       	inc	r11
     e8e:	04 c0       	rjmp	.+8      	; 0xe98 <vfprintf+0x31a>
     e90:	8a 2d       	mov	r24, r10
     e92:	86 78       	andi	r24, 0x86	; 134
     e94:	09 f0       	breq	.+2      	; 0xe98 <vfprintf+0x31a>
     e96:	b3 94       	inc	r11
     e98:	a3 fc       	sbrc	r10, 3
     e9a:	10 c0       	rjmp	.+32     	; 0xebc <vfprintf+0x33e>
     e9c:	a0 fe       	sbrs	r10, 0
     e9e:	06 c0       	rjmp	.+12     	; 0xeac <vfprintf+0x32e>
     ea0:	b2 14       	cp	r11, r2
     ea2:	80 f4       	brcc	.+32     	; 0xec4 <vfprintf+0x346>
     ea4:	28 0c       	add	r2, r8
     ea6:	92 2c       	mov	r9, r2
     ea8:	9b 18       	sub	r9, r11
     eaa:	0d c0       	rjmp	.+26     	; 0xec6 <vfprintf+0x348>
     eac:	b2 14       	cp	r11, r2
     eae:	58 f4       	brcc	.+22     	; 0xec6 <vfprintf+0x348>
     eb0:	b6 01       	movw	r22, r12
     eb2:	80 e2       	ldi	r24, 0x20	; 32
     eb4:	90 e0       	ldi	r25, 0x00	; 0
     eb6:	86 d0       	rcall	.+268    	; 0xfc4 <fputc>
     eb8:	b3 94       	inc	r11
     eba:	f8 cf       	rjmp	.-16     	; 0xeac <vfprintf+0x32e>
     ebc:	b2 14       	cp	r11, r2
     ebe:	18 f4       	brcc	.+6      	; 0xec6 <vfprintf+0x348>
     ec0:	2b 18       	sub	r2, r11
     ec2:	02 c0       	rjmp	.+4      	; 0xec8 <vfprintf+0x34a>
     ec4:	98 2c       	mov	r9, r8
     ec6:	21 2c       	mov	r2, r1
     ec8:	a4 fe       	sbrs	r10, 4
     eca:	0f c0       	rjmp	.+30     	; 0xeea <vfprintf+0x36c>
     ecc:	b6 01       	movw	r22, r12
     ece:	80 e3       	ldi	r24, 0x30	; 48
     ed0:	90 e0       	ldi	r25, 0x00	; 0
     ed2:	78 d0       	rcall	.+240    	; 0xfc4 <fputc>
     ed4:	a2 fe       	sbrs	r10, 2
     ed6:	16 c0       	rjmp	.+44     	; 0xf04 <vfprintf+0x386>
     ed8:	a1 fc       	sbrc	r10, 1
     eda:	03 c0       	rjmp	.+6      	; 0xee2 <vfprintf+0x364>
     edc:	88 e7       	ldi	r24, 0x78	; 120
     ede:	90 e0       	ldi	r25, 0x00	; 0
     ee0:	02 c0       	rjmp	.+4      	; 0xee6 <vfprintf+0x368>
     ee2:	88 e5       	ldi	r24, 0x58	; 88
     ee4:	90 e0       	ldi	r25, 0x00	; 0
     ee6:	b6 01       	movw	r22, r12
     ee8:	0c c0       	rjmp	.+24     	; 0xf02 <vfprintf+0x384>
     eea:	8a 2d       	mov	r24, r10
     eec:	86 78       	andi	r24, 0x86	; 134
     eee:	51 f0       	breq	.+20     	; 0xf04 <vfprintf+0x386>
     ef0:	a1 fe       	sbrs	r10, 1
     ef2:	02 c0       	rjmp	.+4      	; 0xef8 <vfprintf+0x37a>
     ef4:	8b e2       	ldi	r24, 0x2B	; 43
     ef6:	01 c0       	rjmp	.+2      	; 0xefa <vfprintf+0x37c>
     ef8:	80 e2       	ldi	r24, 0x20	; 32
     efa:	a7 fc       	sbrc	r10, 7
     efc:	8d e2       	ldi	r24, 0x2D	; 45
     efe:	b6 01       	movw	r22, r12
     f00:	90 e0       	ldi	r25, 0x00	; 0
     f02:	60 d0       	rcall	.+192    	; 0xfc4 <fputc>
     f04:	89 14       	cp	r8, r9
     f06:	30 f4       	brcc	.+12     	; 0xf14 <vfprintf+0x396>
     f08:	b6 01       	movw	r22, r12
     f0a:	80 e3       	ldi	r24, 0x30	; 48
     f0c:	90 e0       	ldi	r25, 0x00	; 0
     f0e:	5a d0       	rcall	.+180    	; 0xfc4 <fputc>
     f10:	9a 94       	dec	r9
     f12:	f8 cf       	rjmp	.-16     	; 0xf04 <vfprintf+0x386>
     f14:	8a 94       	dec	r8
     f16:	f3 01       	movw	r30, r6
     f18:	e8 0d       	add	r30, r8
     f1a:	f1 1d       	adc	r31, r1
     f1c:	80 81       	ld	r24, Z
     f1e:	b6 01       	movw	r22, r12
     f20:	90 e0       	ldi	r25, 0x00	; 0
     f22:	50 d0       	rcall	.+160    	; 0xfc4 <fputc>
     f24:	81 10       	cpse	r8, r1
     f26:	f6 cf       	rjmp	.-20     	; 0xf14 <vfprintf+0x396>
     f28:	22 20       	and	r2, r2
     f2a:	09 f4       	brne	.+2      	; 0xf2e <vfprintf+0x3b0>
     f2c:	4e ce       	rjmp	.-868    	; 0xbca <vfprintf+0x4c>
     f2e:	b6 01       	movw	r22, r12
     f30:	80 e2       	ldi	r24, 0x20	; 32
     f32:	90 e0       	ldi	r25, 0x00	; 0
     f34:	47 d0       	rcall	.+142    	; 0xfc4 <fputc>
     f36:	2a 94       	dec	r2
     f38:	f7 cf       	rjmp	.-18     	; 0xf28 <vfprintf+0x3aa>
     f3a:	f6 01       	movw	r30, r12
     f3c:	86 81       	ldd	r24, Z+6	; 0x06
     f3e:	97 81       	ldd	r25, Z+7	; 0x07
     f40:	02 c0       	rjmp	.+4      	; 0xf46 <vfprintf+0x3c8>
     f42:	8f ef       	ldi	r24, 0xFF	; 255
     f44:	9f ef       	ldi	r25, 0xFF	; 255
     f46:	2b 96       	adiw	r28, 0x0b	; 11
     f48:	0f b6       	in	r0, 0x3f	; 63
     f4a:	f8 94       	cli
     f4c:	de bf       	out	0x3e, r29	; 62
     f4e:	0f be       	out	0x3f, r0	; 63
     f50:	cd bf       	out	0x3d, r28	; 61
     f52:	df 91       	pop	r29
     f54:	cf 91       	pop	r28
     f56:	1f 91       	pop	r17
     f58:	0f 91       	pop	r16
     f5a:	ff 90       	pop	r15
     f5c:	ef 90       	pop	r14
     f5e:	df 90       	pop	r13
     f60:	cf 90       	pop	r12
     f62:	bf 90       	pop	r11
     f64:	af 90       	pop	r10
     f66:	9f 90       	pop	r9
     f68:	8f 90       	pop	r8
     f6a:	7f 90       	pop	r7
     f6c:	6f 90       	pop	r6
     f6e:	5f 90       	pop	r5
     f70:	4f 90       	pop	r4
     f72:	3f 90       	pop	r3
     f74:	2f 90       	pop	r2
     f76:	08 95       	ret

00000f78 <strnlen_P>:
     f78:	fc 01       	movw	r30, r24
     f7a:	05 90       	lpm	r0, Z+
     f7c:	61 50       	subi	r22, 0x01	; 1
     f7e:	70 40       	sbci	r23, 0x00	; 0
     f80:	01 10       	cpse	r0, r1
     f82:	d8 f7       	brcc	.-10     	; 0xf7a <strnlen_P+0x2>
     f84:	80 95       	com	r24
     f86:	90 95       	com	r25
     f88:	8e 0f       	add	r24, r30
     f8a:	9f 1f       	adc	r25, r31
     f8c:	08 95       	ret

00000f8e <strnlen>:
     f8e:	fc 01       	movw	r30, r24
     f90:	61 50       	subi	r22, 0x01	; 1
     f92:	70 40       	sbci	r23, 0x00	; 0
     f94:	01 90       	ld	r0, Z+
     f96:	01 10       	cpse	r0, r1
     f98:	d8 f7       	brcc	.-10     	; 0xf90 <strnlen+0x2>
     f9a:	80 95       	com	r24
     f9c:	90 95       	com	r25
     f9e:	8e 0f       	add	r24, r30
     fa0:	9f 1f       	adc	r25, r31
     fa2:	08 95       	ret

00000fa4 <strrev>:
     fa4:	dc 01       	movw	r26, r24
     fa6:	fc 01       	movw	r30, r24
     fa8:	67 2f       	mov	r22, r23
     faa:	71 91       	ld	r23, Z+
     fac:	77 23       	and	r23, r23
     fae:	e1 f7       	brne	.-8      	; 0xfa8 <strrev+0x4>
     fb0:	32 97       	sbiw	r30, 0x02	; 2
     fb2:	04 c0       	rjmp	.+8      	; 0xfbc <strrev+0x18>
     fb4:	7c 91       	ld	r23, X
     fb6:	6d 93       	st	X+, r22
     fb8:	70 83       	st	Z, r23
     fba:	62 91       	ld	r22, -Z
     fbc:	ae 17       	cp	r26, r30
     fbe:	bf 07       	cpc	r27, r31
     fc0:	c8 f3       	brcs	.-14     	; 0xfb4 <strrev+0x10>
     fc2:	08 95       	ret

00000fc4 <fputc>:
     fc4:	0f 93       	push	r16
     fc6:	1f 93       	push	r17
     fc8:	cf 93       	push	r28
     fca:	df 93       	push	r29
     fcc:	fb 01       	movw	r30, r22
     fce:	23 81       	ldd	r18, Z+3	; 0x03
     fd0:	21 fd       	sbrc	r18, 1
     fd2:	03 c0       	rjmp	.+6      	; 0xfda <fputc+0x16>
     fd4:	8f ef       	ldi	r24, 0xFF	; 255
     fd6:	9f ef       	ldi	r25, 0xFF	; 255
     fd8:	2c c0       	rjmp	.+88     	; 0x1032 <__EEPROM_REGION_LENGTH__+0x32>
     fda:	22 ff       	sbrs	r18, 2
     fdc:	16 c0       	rjmp	.+44     	; 0x100a <__EEPROM_REGION_LENGTH__+0xa>
     fde:	46 81       	ldd	r20, Z+6	; 0x06
     fe0:	57 81       	ldd	r21, Z+7	; 0x07
     fe2:	24 81       	ldd	r18, Z+4	; 0x04
     fe4:	35 81       	ldd	r19, Z+5	; 0x05
     fe6:	42 17       	cp	r20, r18
     fe8:	53 07       	cpc	r21, r19
     fea:	44 f4       	brge	.+16     	; 0xffc <fputc+0x38>
     fec:	a0 81       	ld	r26, Z
     fee:	b1 81       	ldd	r27, Z+1	; 0x01
     ff0:	9d 01       	movw	r18, r26
     ff2:	2f 5f       	subi	r18, 0xFF	; 255
     ff4:	3f 4f       	sbci	r19, 0xFF	; 255
     ff6:	31 83       	std	Z+1, r19	; 0x01
     ff8:	20 83       	st	Z, r18
     ffa:	8c 93       	st	X, r24
     ffc:	26 81       	ldd	r18, Z+6	; 0x06
     ffe:	37 81       	ldd	r19, Z+7	; 0x07
    1000:	2f 5f       	subi	r18, 0xFF	; 255
    1002:	3f 4f       	sbci	r19, 0xFF	; 255
    1004:	37 83       	std	Z+7, r19	; 0x07
    1006:	26 83       	std	Z+6, r18	; 0x06
    1008:	14 c0       	rjmp	.+40     	; 0x1032 <__EEPROM_REGION_LENGTH__+0x32>
    100a:	8b 01       	movw	r16, r22
    100c:	ec 01       	movw	r28, r24
    100e:	fb 01       	movw	r30, r22
    1010:	00 84       	ldd	r0, Z+8	; 0x08
    1012:	f1 85       	ldd	r31, Z+9	; 0x09
    1014:	e0 2d       	mov	r30, r0
    1016:	19 95       	eicall
    1018:	89 2b       	or	r24, r25
    101a:	e1 f6       	brne	.-72     	; 0xfd4 <fputc+0x10>
    101c:	d8 01       	movw	r26, r16
    101e:	16 96       	adiw	r26, 0x06	; 6
    1020:	8d 91       	ld	r24, X+
    1022:	9c 91       	ld	r25, X
    1024:	17 97       	sbiw	r26, 0x07	; 7
    1026:	01 96       	adiw	r24, 0x01	; 1
    1028:	17 96       	adiw	r26, 0x07	; 7
    102a:	9c 93       	st	X, r25
    102c:	8e 93       	st	-X, r24
    102e:	16 97       	sbiw	r26, 0x06	; 6
    1030:	ce 01       	movw	r24, r28
    1032:	df 91       	pop	r29
    1034:	cf 91       	pop	r28
    1036:	1f 91       	pop	r17
    1038:	0f 91       	pop	r16
    103a:	08 95       	ret

0000103c <__ultoa_invert>:
    103c:	fa 01       	movw	r30, r20
    103e:	aa 27       	eor	r26, r26
    1040:	28 30       	cpi	r18, 0x08	; 8
    1042:	51 f1       	breq	.+84     	; 0x1098 <__ultoa_invert+0x5c>
    1044:	20 31       	cpi	r18, 0x10	; 16
    1046:	81 f1       	breq	.+96     	; 0x10a8 <__ultoa_invert+0x6c>
    1048:	e8 94       	clt
    104a:	6f 93       	push	r22
    104c:	6e 7f       	andi	r22, 0xFE	; 254
    104e:	6e 5f       	subi	r22, 0xFE	; 254
    1050:	7f 4f       	sbci	r23, 0xFF	; 255
    1052:	8f 4f       	sbci	r24, 0xFF	; 255
    1054:	9f 4f       	sbci	r25, 0xFF	; 255
    1056:	af 4f       	sbci	r26, 0xFF	; 255
    1058:	b1 e0       	ldi	r27, 0x01	; 1
    105a:	3e d0       	rcall	.+124    	; 0x10d8 <__ultoa_invert+0x9c>
    105c:	b4 e0       	ldi	r27, 0x04	; 4
    105e:	3c d0       	rcall	.+120    	; 0x10d8 <__ultoa_invert+0x9c>
    1060:	67 0f       	add	r22, r23
    1062:	78 1f       	adc	r23, r24
    1064:	89 1f       	adc	r24, r25
    1066:	9a 1f       	adc	r25, r26
    1068:	a1 1d       	adc	r26, r1
    106a:	68 0f       	add	r22, r24
    106c:	79 1f       	adc	r23, r25
    106e:	8a 1f       	adc	r24, r26
    1070:	91 1d       	adc	r25, r1
    1072:	a1 1d       	adc	r26, r1
    1074:	6a 0f       	add	r22, r26
    1076:	71 1d       	adc	r23, r1
    1078:	81 1d       	adc	r24, r1
    107a:	91 1d       	adc	r25, r1
    107c:	a1 1d       	adc	r26, r1
    107e:	20 d0       	rcall	.+64     	; 0x10c0 <__ultoa_invert+0x84>
    1080:	09 f4       	brne	.+2      	; 0x1084 <__ultoa_invert+0x48>
    1082:	68 94       	set
    1084:	3f 91       	pop	r19
    1086:	2a e0       	ldi	r18, 0x0A	; 10
    1088:	26 9f       	mul	r18, r22
    108a:	11 24       	eor	r1, r1
    108c:	30 19       	sub	r19, r0
    108e:	30 5d       	subi	r19, 0xD0	; 208
    1090:	31 93       	st	Z+, r19
    1092:	de f6       	brtc	.-74     	; 0x104a <__ultoa_invert+0xe>
    1094:	cf 01       	movw	r24, r30
    1096:	08 95       	ret
    1098:	46 2f       	mov	r20, r22
    109a:	47 70       	andi	r20, 0x07	; 7
    109c:	40 5d       	subi	r20, 0xD0	; 208
    109e:	41 93       	st	Z+, r20
    10a0:	b3 e0       	ldi	r27, 0x03	; 3
    10a2:	0f d0       	rcall	.+30     	; 0x10c2 <__ultoa_invert+0x86>
    10a4:	c9 f7       	brne	.-14     	; 0x1098 <__ultoa_invert+0x5c>
    10a6:	f6 cf       	rjmp	.-20     	; 0x1094 <__ultoa_invert+0x58>
    10a8:	46 2f       	mov	r20, r22
    10aa:	4f 70       	andi	r20, 0x0F	; 15
    10ac:	40 5d       	subi	r20, 0xD0	; 208
    10ae:	4a 33       	cpi	r20, 0x3A	; 58
    10b0:	18 f0       	brcs	.+6      	; 0x10b8 <__ultoa_invert+0x7c>
    10b2:	49 5d       	subi	r20, 0xD9	; 217
    10b4:	31 fd       	sbrc	r19, 1
    10b6:	40 52       	subi	r20, 0x20	; 32
    10b8:	41 93       	st	Z+, r20
    10ba:	02 d0       	rcall	.+4      	; 0x10c0 <__ultoa_invert+0x84>
    10bc:	a9 f7       	brne	.-22     	; 0x10a8 <__ultoa_invert+0x6c>
    10be:	ea cf       	rjmp	.-44     	; 0x1094 <__ultoa_invert+0x58>
    10c0:	b4 e0       	ldi	r27, 0x04	; 4
    10c2:	a6 95       	lsr	r26
    10c4:	97 95       	ror	r25
    10c6:	87 95       	ror	r24
    10c8:	77 95       	ror	r23
    10ca:	67 95       	ror	r22
    10cc:	ba 95       	dec	r27
    10ce:	c9 f7       	brne	.-14     	; 0x10c2 <__ultoa_invert+0x86>
    10d0:	00 97       	sbiw	r24, 0x00	; 0
    10d2:	61 05       	cpc	r22, r1
    10d4:	71 05       	cpc	r23, r1
    10d6:	08 95       	ret
    10d8:	9b 01       	movw	r18, r22
    10da:	ac 01       	movw	r20, r24
    10dc:	0a 2e       	mov	r0, r26
    10de:	06 94       	lsr	r0
    10e0:	57 95       	ror	r21
    10e2:	47 95       	ror	r20
    10e4:	37 95       	ror	r19
    10e6:	27 95       	ror	r18
    10e8:	ba 95       	dec	r27
    10ea:	c9 f7       	brne	.-14     	; 0x10de <__ultoa_invert+0xa2>
    10ec:	62 0f       	add	r22, r18
    10ee:	73 1f       	adc	r23, r19
    10f0:	84 1f       	adc	r24, r20
    10f2:	95 1f       	adc	r25, r21
    10f4:	a0 1d       	adc	r26, r0
    10f6:	08 95       	ret

000010f8 <_exit>:
    10f8:	f8 94       	cli

000010fa <__stop_program>:
    10fa:	ff cf       	rjmp	.-2      	; 0x10fa <__stop_program>
